
build/program.elf:     file format elf32-littleriscv

Contents of section .text.init:
 0000 17010100 130101fe ef000013 6f000000  ............o...
Contents of section .text:
 0010 97210000 9381813d 138501c7 138601c7  .!.....=........
 0020 3306a640 93050000 ef101011 17250000  3..@.........%..
 0030 13058580 ef10c07b ef109005 03250100  .......{.....%..
 0040 93054100 13060000 ef00000f 6f10807b  ..A.........o..{
 0050 67800000 138741c7 938741c7 638ce700  g.....A...A.c...
 0060 37030000 13030300 63060300 138541c7  7.......c.....A.
 0070 67000300 67800000 938541c7 938741c7  g...g.....A...A.
 0080 b385f540 93d52540 93d7f501 b385b700  ...@..%@........
 0090 93d51540 638c0500 37030000 13030300  ...@c...7.......
 00a0 63060300 138541c7 67000300 67800000  c.....A.g...g...
 00b0 b7270000 03c787be 63140704 130101ff  .'......c.......
 00c0 23248100 23261100 13840700 eff09ff8  #$..#&..........
 00d0 b7070000 93870700 63880700 138501c7  ........c.......
 00e0 97000000 e7000000 93071000 2304f4be  ............#...
 00f0 8320c100 03248100 13010101 67800000  . ...$......g...
 0100 67800000 b7070000 93870700 63840702  g...........c...
 0110 b7250000 130101ff 9385c5be 138501c7  .%..............
 0120 23261100 97000000 e7000000 8320c100  #&........... ..
 0130 13010101 6ff05ff4 130101fb 23261104  ....o._.....#&..
 0140 23248104 13040105 232404fc 9307d009  #$......#$......
 0150 2322f4fc 93070006 2320f4fc 232604fe  #"......# ..#&..
 0160 232404fe 232204fe 232004fe 93071000  #$..#"..# ......
 0170 232ef4fc 93071000 232cf4fc ef10c05c  #.......#,.....\
 0180 832644fc 13061003 9305a000 1305a000  .&D.............
 0190 ef10c054 832644fc 13061003 9305a000  ...T.&D.........
 01a0 13054004 ef108053 832644fc 1306a000  ..@....S.&D.....
 01b0 93050000 13052002 ef104052 832644fc  ...... ...@R.&D.
 01c0 1306a000 93050000 1305d002 ef100051  ...............Q
 01d0 832644fc 1306b003 93051003 13052002  .&D........... .
 01e0 ef10c04f 832644fc 1306b003 93051003  ...O.&D.........
 01f0 1305d002 ef10804e 832644fc 13063002  .......N.&D...0.
 0200 93058001 13057002 ef10404d 832644fc  ......p...@M.&D.
 0210 13063002 93058001 13058002 ef10004c  ..0............L
 0220 832644fc 1306d002 9305d001 13052002  .&D........... .
 0230 ef100044 832644fc 1306d002 9305e001  ...D.&D.........
 0240 13052002 ef10c042 832644fc 13062002  .. ....B.&D... .
 0250 9305a000 13053001 ef108041 832644fc  ......0....A.&D.
 0260 13062002 93051003 13053001 ef104040  .. .......0...@@
 0270 832644fc 1306b003 9305a000 1305d002  .&D.............
 0280 ef10003f 832644fc 1306b003 93051003  ...?.&D.........
 0290 1305d002 ef10c03d 032604fc 93056000  .......=.&....`.
 02a0 13057002 ef100050 032604fc 93056000  ..p....P.&....`.
 02b0 13058002 ef10004f 032604fc 93058003  .......O.&......
 02c0 1305a002 ef10004e 032604fc 93055002  .......N.&....P.
 02d0 1305f002 ef10004d 032604fc 93051001  .......M.&......
 02e0 13050003 ef10004c 032604fc 93051001  .......L.&......
 02f0 13051003 ef10004b 032604fc 9305a001  .......K.&......
 0300 13055003 ef10004a 032604fc 9305b001  ..P....J.&......
 0310 13055003 ef100049 032604fc 9305c002  ..P....I.&......
 0320 13058003 ef100048 032604fc 9305d002  .......H.&......
 0330 13058003 ef100047 032604fc 9305c002  .......G.&......
 0340 13059003 ef100046 032604fc 9305d002  .......F.&......
 0350 13059003 ef100045 032604fc 93054002  .......E.&....@.
 0360 1305c003 ef100044 032604fc 93052001  .......D.&.... .
 0370 1305c003 ef100043 032604fc 9305d000  .......C.&......
 0380 13051000 ef100042 032604fc 93057001  .......B.&....p.
 0390 13056000 ef100041 032604fc 93057002  ..`....A.&....p.
 03a0 13052000 ef100040 032604fc 93055003  .. ....@.&....P.
 03b0 13055000 ef10003f 032604fc 93056003  ..P....?.&....`.
 03c0 13055000 ef10003e 032604fc 93056003  ..P....>.&....`.
 03d0 13056000 ef10003d 032604fc 93058003  ..`....=.&......
 03e0 13053001 ef10003c 032604fc 93054003  ..0....<.&....@.
 03f0 1305e001 ef10003b 032604fc 93055000  .......;.&....P.
 0400 13053001 ef10003a 032604fc 93053000  ..0....:.&....0.
 0410 13055001 ef100039 032604fc 93051000  ..P....9.&......
 0420 13050001 ef100038 032604fc 93051000  .......8.&......
 0430 13057000 ef100037 032604fc 93052000  ..p....7.&.... .
 0440 13050001 ef100036 032604fc 93052000  .......6.&.... .
 0450 13053003 ef100035 032604fc 93056000  ..0....5.&....`.
 0460 13058003 ef100034 032604fc 93052000  .......4.&.... .
 0470 13050004 ef100033 032604fc 93052000  .......3.&.... .
 0480 13051004 ef100032 032604fc 93053000  .......2.&....0.
 0490 13051004 ef100031 032604fc 93054000  .......1.&....@.
 04a0 1305b004 ef100030 032604fc 93058001  .......0.&......
 04b0 13057004 ef10002f 032604fc 93058001  ..p..../.&......
 04c0 13058004 ef10002e 032604fc 93059002  .........&......
 04d0 1305c004 ef10002d 032604fc 93057003  .......-.&....p.
 04e0 1305a004 ef10002c 032604fc 93058003  .......,.&......
 04f0 13059003 ef10002b 032604fc 93058003  .......+.&......
 0500 13058003 ef10002a 032604fc 9305e001  .......*.&......
 0510 1305f000 ef100029 032604fc 9305b002  .......).&......
 0520 13052001 ef100028 032604fc 93051001  .. ....(.&......
 0530 13053001 ef100027 032604fc 9305a001  ..0....'.&......
 0540 13057001 ef100026 032604fc 9305b001  ..p....&.&......
 0550 13057001 ef100025 032604fc 9305a001  ..p....%.&......
 0560 13058001 ef100024 032604fc 9305b001  .......$.&......
 0570 13058001 ef100023 032604fc 93058002  .......#.&......
 0580 1305e001 ef100022 032604fc 9305f000  .......".&......
 0590 1305e001 ef100021 032604fc 93050001  .......!.&......
 05a0 1305e001 ef100020 032604fc 9305f000  ....... .&......
 05b0 1305f001 ef10001f 032604fc 93050001  .........&......
 05c0 1305f001 ef10001e 032604fc 93057001  .........&....p.
 05d0 13053002 ef10001d 032604fc 9305d002  ..0......&......
 05e0 13056002 ef10001c 032604fc 9305d002  ..`......&......
 05f0 13057002 ef10001b 032684fc 832584fe  ..p......&...%..
 0600 0325c4fe ef10001a 93077001 13860700  .%........p.....
 0610 832504fe 032544fe ef10c018 b7070011  .%...%D.........
 0620 03a70700 93070700 93972700 b387e700  ..........'.....
 0630 93973700 b387e740 93974700 b387e700  ..7....@..G.....
 0640 93974700 232ef4fa 232a04fc 232804fc  ..G.#...#*..#(..
 0650 232604fc 6f004003 832744fd 63900702  #&..o.@..'D.c...
 0660 b7071811 83a70700 2328f4fc 832704fd  ........#(...'..
 0670 6356f000 93071000 232af4fc 8327c4fc  cV......#*...'..
 0680 93871700 2326f4fc 0327c4fc 8327c4fb  ....#&...'...'..
 0690 e344f7fc 032704fd 93071000 6318f700  .D...'......c...
 06a0 9307f0ff 232ef4fc 232c04fc 032704fd  ....#...#,...'..
 06b0 93075000 631af700 9307f0ff 232ef4fc  ..P.c.......#...
 06c0 9307f0ff 232cf4fc 032704fd 93074000  ....#,...'....@.
 06d0 6318f700 232e04fc 9307f0ff 232cf4fc  c...#.......#,..
 06e0 032704fd 93076000 631af700 93071000  .'....`.c.......
 06f0 232ef4fc 9307f0ff 232cf4fc 032704fd  #.......#,...'..
 0700 93072000 6318f700 93071000 232ef4fc  .. .c.......#...
 0710 232c04fc 032704fd 9307a000 631af700  #,...'......c...
 0720 93071000 232ef4fc 93071000 232cf4fc  ....#.......#,..
 0730 032704fd 93078000 6318f700 232e04fc  .'......c...#...
 0740 93071000 232cf4fc 032704fd 93079000  ....#,...'......
 0750 631af700 9307f0ff 232ef4fc 93071000  c.......#.......
 0760 232cf4fc 0327c4fe 9307e004 63d6e700  #,...'......c...
 0770 9307f0ff 232ef4fc 8327c4fe 6346f000  ....#....'..cF..
 0780 93071000 232ef4fc 032784fe 9307a003  ....#....'......
 0790 63d6e700 9307f0ff 232cf4fc 832784fe  c.......#,...'..
 07a0 6346f000 93071000 232cf4fc 0327c4fe  cF......#,...'..
 07b0 93079000 6318f702 032784fe 93079000  ....c....'......
 07c0 63d2e702 032784fe 93071003 63cce700  c....'......c...
 07d0 0327c4fd 93071000 6316f700 9307f0ff  .'......c.......
 07e0 232ef4fc 0327c4fe 9307b000 6318f702  #....'......c...
 07f0 032784fe 93079000 63d2e702 032784fe  .'......c....'..
 0800 93071003 63cce700 0327c4fd 9307f0ff  ....c....'......
 0810 6316f700 93071000 232ef4fc 0327c4fe  c.......#....'..
 0820 9307a000 6312f702 032784fe 93079000  ....c....'......
 0830 631cf700 032784fd 93071000 6316f700  c....'......c...
 0840 9307f0ff 232cf4fc 0327c4fe 9307a000  ....#,...'......
 0850 6312f702 032784fe 93072003 631cf700  c....'.... .c...
 0860 032784fd 9307f0ff 6316f700 93071000  .'......c.......
 0870 232cf4fc 0327c4fe 93079000 631cf702  #,...'......c...
 0880 032784fe 93079000 6316f702 0327c4fd  .'......c....'..
 0890 93071000 6310f702 032784fd 93071000  ....c....'......
 08a0 631af700 9307f0ff 232ef4fc 9307f0ff  c.......#.......
 08b0 232cf4fc 0327c4fe 9307b000 631cf702  #,...'......c...
 08c0 032784fe 93079000 6316f702 0327c4fd  .'......c....'..
 08d0 9307f0ff 6310f702 032784fd 93071000  ....c....'......
 08e0 631af700 93071000 232ef4fc 9307f0ff  c.......#.......
 08f0 232cf4fc 0327c4fe 93079000 631cf702  #,...'......c...
 0900 032784fe 93072003 6316f702 0327c4fd  .'.... .c....'..
 0910 93071000 6310f702 032784fd 9307f0ff  ....c....'......
 0920 631af700 9307f0ff 232ef4fc 93071000  c.......#.......
 0930 232cf4fc 0327c4fe 9307b000 631cf702  #,...'......c...
 0940 032784fe 93072003 6316f702 0327c4fd  .'.... .c....'..
 0950 9307f0ff 6310f702 032784fd 9307f0ff  ....c....'......
 0960 631af700 93071000 232ef4fc 93071000  c.......#.......
 0970 232cf4fc 0327c4fe 93073004 6318f702  #,...'....0.c...
 0980 032784fe 93079000 63d2e702 032784fe  .'......c....'..
 0990 93071003 63cce700 0327c4fd 93071000  ....c....'......
 09a0 6316f700 9307f0ff 232ef4fc 0327c4fe  c.......#....'..
 09b0 93075004 6318f702 032784fe 93079000  ..P.c....'......
 09c0 63d2e702 032784fe 93071003 63cce700  c....'......c...
 09d0 0327c4fd 9307f0ff 6316f700 93071000  .'......c.......
 09e0 232ef4fc 0327c4fe 93074004 6312f702  #....'....@.c...
 09f0 032784fe 93079000 631cf700 032784fd  .'......c....'..
 0a00 93071000 6316f700 9307f0ff 232cf4fc  ....c.......#,..
 0a10 0327c4fe 93074004 6312f702 032784fe  .'....@.c....'..
 0a20 93072003 631cf700 032784fd 9307f0ff  .. .c....'......
 0a30 6316f700 93071000 232cf4fc 0327c4fe  c.......#,...'..
 0a40 93073004 631cf702 032784fe 93079000  ..0.c....'......
 0a50 6316f702 0327c4fd 93071000 6310f702  c....'......c...
 0a60 032784fd 93071000 631af700 9307f0ff  .'......c.......
 0a70 232ef4fc 9307f0ff 232cf4fc 0327c4fe  #.......#,...'..
 0a80 93075004 631cf702 032784fe 93079000  ..P.c....'......
 0a90 6316f702 0327c4fd 9307f0ff 6310f702  c....'......c...
 0aa0 032784fd 93071000 631af700 93071000  .'......c.......
 0ab0 232ef4fc 9307f0ff 232cf4fc 0327c4fe  #.......#,...'..
 0ac0 93073004 631cf702 032784fe 93072003  ..0.c....'.... .
 0ad0 6316f702 0327c4fd 93071000 6310f702  c....'......c...
 0ae0 032784fd 9307f0ff 631af700 9307f0ff  .'......c.......
 0af0 232ef4fc 93071000 232cf4fc 0327c4fe  #.......#,...'..
 0b00 93075004 631cf702 032784fe 93072003  ..P.c....'.... .
 0b10 6316f702 0327c4fd 9307f0ff 6310f702  c....'......c...
 0b20 032784fd 9307f0ff 631af700 93071000  .'......c.......
 0b30 232ef4fc 93071000 232cf4fc 0327c4fe  #.......#,...'..
 0b40 93076002 6318f702 032784fe 93077001  ..`.c....'....p.
 0b50 63d2e702 032784fe 93073002 63cce700  c....'....0.c...
 0b60 0327c4fd 93071000 6316f700 9307f0ff  .'......c.......
 0b70 232ef4fc 0327c4fe 93079002 6318f702  #....'......c...
 0b80 032784fe 93077001 63d2e702 032784fe  .'....p.c....'..
 0b90 93073002 63cce700 0327c4fd 9307f0ff  ..0.c....'......
 0ba0 6316f700 93071000 232ef4fc 0327c4fe  c.......#....'..
 0bb0 93076002 63d8e702 0327c4fe 93078002  ..`.c....'......
 0bc0 63c2e702 032784fe 93077001 631cf700  c....'....p.c...
 0bd0 032784fd 93071000 6316f700 9307f0ff  .'......c.......
 0be0 232cf4fc 0327c4fe 93076002 63d8e702  #,...'....`.c...
 0bf0 0327c4fe 93078002 63c2e702 032784fe  .'......c....'..
 0c00 93074002 631cf700 032784fd 9307f0ff  ..@.c....'......
 0c10 6316f700 93071000 232cf4fc 0327c4fe  c.......#,...'..
 0c20 93071002 6318f702 032784fe 9307c001  ....c....'......
 0c30 63d2e702 032784fe 9307e001 63cce700  c....'......c...
 0c40 0327c4fd 93071000 6316f700 9307f0ff  .'......c.......
 0c50 232ef4fc 0327c4fe 9307e002 6318f702  #....'......c...
 0c60 032784fe 9307c001 63d2e702 032784fe  .'......c....'..
 0c70 9307e001 63cce700 0327c4fd 9307f0ff  ....c....'......
 0c80 6316f700 93071000 232ef4fc 0327c4fe  c.......#....'..
 0c90 93071002 63d8e702 0327c4fe 9307d002  ....c....'......
 0ca0 63c2e702 032784fe 9307c001 631cf700  c....'......c...
 0cb0 032784fd 93071000 6316f700 9307f0ff  .'......c.......
 0cc0 232cf4fc 0327c4fe 93071002 63d8e702  #,...'......c...
 0cd0 0327c4fe 9307d002 63c2e702 032784fe  .'......c....'..
 0ce0 9307f001 631cf700 032784fd 9307f0ff  ....c....'......
 0cf0 6316f700 93071000 232cf4fc 0327c4fe  c.......#,...'..
 0d00 93071002 631cf702 032784fe 9307c001  ....c....'......
 0d10 6316f702 0327c4fd 93071000 6310f702  c....'......c...
 0d20 032784fd 93071000 631af700 9307f0ff  .'......c.......
 0d30 232ef4fc 9307f0ff 232cf4fc 0327c4fe  #.......#,...'..
 0d40 93071002 631cf702 032784fe 9307f001  ....c....'......
 0d50 6316f702 0327c4fd 93071000 6310f702  c....'......c...
 0d60 032784fd 9307f0ff 631af700 9307f0ff  .'......c.......
 0d70 232ef4fc 93071000 232cf4fc 0327c4fe  #.......#,...'..
 0d80 93076002 631cf702 032784fe 93077001  ..`.c....'....p.
 0d90 6316f702 0327c4fd 93071000 6310f702  c....'......c...
 0da0 032784fd 93071000 631af700 9307f0ff  .'......c.......
 0db0 232ef4fc 9307f0ff 232cf4fc 0327c4fe  #.......#,...'..
 0dc0 93076002 631cf702 032784fe 93074002  ..`.c....'....@.
 0dd0 6316f702 0327c4fd 93071000 6310f702  c....'......c...
 0de0 032784fd 9307f0ff 631af700 9307f0ff  .'......c.......
 0df0 232ef4fc 93071000 232cf4fc 0327c4fe  #.......#,...'..
 0e00 93079002 631cf702 032784fe 93077001  ....c....'....p.
 0e10 6316f702 0327c4fd 9307f0ff 6310f702  c....'......c...
 0e20 032784fd 93071000 631af700 93071000  .'......c.......
 0e30 232ef4fc 9307f0ff 232cf4fc 0327c4fe  #.......#,...'..
 0e40 93079002 631cf702 032784fe 93074002  ....c....'....@.
 0e50 6316f702 0327c4fd 9307f0ff 6310f702  c....'......c...
 0e60 032784fd 9307f0ff 631af700 93071000  .'......c.......
 0e70 232ef4fc 93071000 232cf4fc 0327c4fe  #.......#,...'..
 0e80 9307e002 631cf702 032784fe 9307c001  ....c....'......
 0e90 6316f702 0327c4fd 9307f0ff 6310f702  c....'......c...
 0ea0 032784fd 93071000 631af700 93071000  .'......c.......
 0eb0 232ef4fc 9307f0ff 232cf4fc 0327c4fe  #.......#,...'..
 0ec0 9307e002 631cf702 032784fe 9307f001  ....c....'......
 0ed0 6316f702 0327c4fd 9307f0ff 6310f702  c....'......c...
 0ee0 032784fd 9307f0ff 631af700 93071000  .'......c.......
 0ef0 232ef4fc 93071000 232cf4fc 0327c4fe  #.......#,...'..
 0f00 93072001 631cf702 032784fe 93070003  .. .c....'......
 0f10 6316f702 0327c4fd 93071000 6310f702  c....'......c...
 0f20 032784fd 93071000 631af700 9307f0ff  .'......c.......
 0f30 232ef4fc 9307f0ff 232cf4fc 0327c4fe  #.......#,...'..
 0f40 93072001 631cf702 032784fe 93072003  .. .c....'.... .
 0f50 6316f702 0327c4fd 93071000 6310f702  c....'......c...
 0f60 032784fd 9307f0ff 631af700 9307f0ff  .'......c.......
 0f70 232ef4fc 93071000 232cf4fc 0327c4fe  #.......#,...'..
 0f80 93072001 631cf702 032784fe 93079000  .. .c....'......
 0f90 6316f702 0327c4fd 93071000 6310f702  c....'......c...
 0fa0 032784fd 93071000 631af700 9307f0ff  .'......c.......
 0fb0 232ef4fc 9307f0ff 232cf4fc 0327c4fe  #.......#,...'..
 0fc0 93072001 631cf702 032784fe 9307b000  .. .c....'......
 0fd0 6316f702 0327c4fd 93071000 6310f702  c....'......c...
 0fe0 032784fd 9307f0ff 631af700 9307f0ff  .'......c.......
 0ff0 232ef4fc 93071000 232cf4fc 0327c4fe  #.......#,...'..
 1000 93073002 631cf702 032784fe 9307b000  ..0.c....'......
 1010 6316f702 0327c4fd 9307f0ff 6310f702  c....'......c...
 1020 032784fd 9307f0ff 631af700 93071000  .'......c.......
 1030 232ef4fc 93071000 232cf4fc 0327c4fe  #.......#,...'..
 1040 93073002 631cf702 032784fe 93070003  ..0.c....'......
 1050 6316f702 0327c4fd 9307f0ff 6310f702  c....'......c...
 1060 032784fd 93071000 631af700 93071000  .'......c.......
 1070 232ef4fc 9307f0ff 232cf4fc 0327c4fe  #.......#,...'..
 1080 9307c002 631cf702 032784fe 9307b000  ....c....'......
 1090 6316f702 0327c4fd 93071000 6310f702  c....'......c...
 10a0 032784fd 9307f0ff 631af700 9307f0ff  .'......c.......
 10b0 232ef4fc 93071000 232cf4fc 0327c4fe  #.......#,...'..
 10c0 9307c002 631cf702 032784fe 93070003  ....c....'......
 10d0 6316f702 0327c4fd 93071000 6310f702  c....'......c...
 10e0 032784fd 93071000 631af700 9307f0ff  .'......c.......
 10f0 232ef4fc 9307f0ff 232cf4fc 0327c4fe  #.......#,...'..
 1100 9307c003 631cf702 032784fe 93079000  ....c....'......
 1110 6316f702 0327c4fd 9307f0ff 6310f702  c....'......c...
 1120 032784fd 93071000 631af700 93071000  .'......c.......
 1130 232ef4fc 9307f0ff 232cf4fc 0327c4fe  #.......#,...'..
 1140 9307c003 631cf702 032784fe 9307b000  ....c....'......
 1150 6316f702 0327c4fd 9307f0ff 6310f702  c....'......c...
 1160 032784fd 9307f0ff 631af700 93071000  .'......c.......
 1170 232ef4fc 93071000 232cf4fc 0327c4fe  #.......#,...'..
 1180 9307c003 631cf702 032784fe 93070003  ....c....'......
 1190 6316f702 0327c4fd 9307f0ff 6310f702  c....'......c...
 11a0 032784fd 93071000 631af700 93071000  .'......c.......
 11b0 232ef4fc 9307f0ff 232cf4fc 0327c4fe  #.......#,...'..
 11c0 9307c003 631cf702 032784fe 93072003  ....c....'.... .
 11d0 6316f702 0327c4fd 9307f0ff 6310f702  c....'......c...
 11e0 032784fd 9307f0ff 631af700 93071000  .'......c.......
 11f0 232ef4fc 93071000 232cf4fc 0327c4fe  #.......#,...'..
 1200 93072001 6312f702 032784fe 9307a000  .. .c....'......
 1210 631cf700 0327c4fd 93071000 6316f700  c....'......c...
 1220 9307f0ff 232ef4fc 0327c4fe 93072001  ....#....'.... .
 1230 6312f702 032784fe 93071003 631cf700  c....'......c...
 1240 0327c4fd 93071000 6316f700 9307f0ff  .'......c.......
 1250 232ef4fc 0327c4fe 9307c003 6312f702  #....'......c...
 1260 032784fe 9307a000 631cf700 0327c4fd  .'......c....'..
 1270 9307f0ff 6316f700 93071000 232ef4fc  ....c.......#...
 1280 0327c4fe 9307c003 6312f702 032784fe  .'......c....'..
 1290 93071003 631cf700 0327c4fd 9307f0ff  ....c....'......
 12a0 6316f700 93071000 232ef4fc 0327c4fe  c.......#....'..
 12b0 93071002 6316f702 832784fe 63c20702  ....c....'..c...
 12c0 032784fe 93079000 63cce700 0327c4fd  .'......c....'..
 12d0 93071000 6316f700 9307f0ff 232ef4fc  ....c.......#...
 12e0 0327c4fe 93073002 6316f702 832784fe  .'....0.c....'..
 12f0 63c20702 032784fe 9307a000 63cce700  c....'......c...
 1300 0327c4fd 9307f0ff 6316f700 93071000  .'......c.......
 1310 232ef4fc 0327c4fe 9307c002 6316f702  #....'......c...
 1320 832784fe 63c20702 032784fe 9307a000  .'..c....'......
 1330 63cce700 0327c4fd 93071000 6316f700  c....'......c...
 1340 9307f0ff 232ef4fc 0327c4fe 9307e002  ....#....'......
 1350 6316f702 832784fe 63c20702 032784fe  c....'..c....'..
 1360 9307a000 63cce700 0327c4fd 9307f0ff  ....c....'......
 1370 6316f700 93071000 232ef4fc 0327c4fe  c.......#....'..
 1380 93071002 6318f702 032784fe 93070003  ....c....'......
 1390 63d2e702 032784fe 9307b003 63cce700  c....'......c...
 13a0 0327c4fd 93071000 6316f700 9307f0ff  .'......c.......
 13b0 232ef4fc 0327c4fe 93073002 6318f702  #....'....0.c...
 13c0 032784fe 93070003 63d2e702 032784fe  .'......c....'..
 13d0 9307b003 63cce700 0327c4fd 9307f0ff  ....c....'......
 13e0 6316f700 93071000 232ef4fc 0327c4fe  c.......#....'..
 13f0 9307c002 6318f702 032784fe 93070003  ....c....'......
 1400 63d2e702 032784fe 9307b003 63cce700  c....'......c...
 1410 0327c4fd 93071000 6316f700 9307f0ff  .'......c.......
 1420 232ef4fc 0327c4fe 9307e002 6318f702  #....'......c...
 1430 032784fe 93070003 63d2e702 032784fe  .'......c....'..
 1440 9307b003 63cce700 0327c4fd 9307f0ff  ....c....'......
 1450 6316f700 93071000 232ef4fc 0327c4fe  c.......#....'..
 1460 93072001 63d8e702 0327c4fe 93072002  .. .c....'.... .
 1470 63c2e702 032784fe 93079000 631cf700  c....'......c...
 1480 032784fd 93071000 6316f700 9307f0ff  .'......c.......
 1490 232cf4fc 0327c4fe 93072001 63d8e702  #,...'.... .c...
 14a0 0327c4fe 93072002 63c2e702 032784fe  .'.... .c....'..
 14b0 9307b000 631cf700 032784fd 9307f0ff  ....c....'......
 14c0 6316f700 93071000 232cf4fc 0327c4fe  c.......#,...'..
 14d0 93072001 63d8e702 0327c4fe 93072002  .. .c....'.... .
 14e0 63c2e702 032784fe 93070003 631cf700  c....'......c...
 14f0 032784fd 93071000 6316f700 9307f0ff  .'......c.......
 1500 232cf4fc 0327c4fe 93072001 63d8e702  #,...'.... .c...
 1510 0327c4fe 93072002 63c2e702 032784fe  .'.... .c....'..
 1520 93072003 631cf700 032784fd 9307f0ff  .. .c....'......
 1530 6316f700 93071000 232cf4fc 0327c4fe  c.......#,...'..
 1540 9307c002 63d8e702 0327c4fe 9307b003  ....c....'......
 1550 63c2e702 032784fe 93079000 631cf700  c....'......c...
 1560 032784fd 93071000 6316f700 9307f0ff  .'......c.......
 1570 232cf4fc 0327c4fe 9307c002 63d8e702  #,...'......c...
 1580 0327c4fe 9307b003 63c2e702 032784fe  .'......c....'..
 1590 9307b000 631cf700 032784fd 9307f0ff  ....c....'......
 15a0 6316f700 93071000 232cf4fc 0327c4fe  c.......#,...'..
 15b0 9307c002 63d8e702 0327c4fe 9307b003  ....c....'......
 15c0 63c2e702 032784fe 93070003 631cf700  c....'......c...
 15d0 032784fd 93071000 6316f700 9307f0ff  .'......c.......
 15e0 232cf4fc 0327c4fe 9307c002 63d8e702  #,...'......c...
 15f0 0327c4fe 9307b003 63c2e702 032784fe  .'......c....'..
 1600 93072003 631cf700 032784fd 9307f0ff  .. .c....'......
 1610 6316f700 93071000 232cf4fc 8327c4fe  c.......#,...'..
 1620 2322f4fe 832784fe 2320f4fe 0327c4fe  #"...'..# ...'..
 1630 8327c4fd b307f700 2326f4fe 032784fe  .'......#&...'..
 1640 832784fd b307f700 2324f4fe 37070011  .'......#$..7...
 1650 b7070811 03270700 23a0e700 37071811  .....'..#...7...
 1660 b7070c11 03270700 23a0e700 6fe0dff8  .....'..#...o...
 1670 130101fe 232e1100 232c8100 13040102  ....#...#,......
 1680 2326a4fe 2324b4fe 2322c4fe 2320d4fe  #&..#$..#"..# ..
 1690 832744fe 93871700 2322f4fe 6f000002  .'D.....#"..o...
 16a0 032604fe 832584fe 0325c4fe ef00800f  .&...%...%......
 16b0 8327c4fe 93871700 2326f4fe 0327c4fe  .'......#&...'..
 16c0 832744fe e31ef7fc 13000000 8320c101  .'D.......... ..
 16d0 03248101 13010102 67800000 130101fe  .$......g.......
 16e0 232e1100 232c8100 13040102 2326a4fe  #...#,......#&..
 16f0 2324b4fe 2322c4fe 2320d4fe 832744fe  #$..#"..# ...'D.
 1700 93871700 2322f4fe 6f000002 032604fe  ....#"..o....&..
 1710 832584fe 0325c4fe ef00c008 832784fe  .%...%.......'..
 1720 93871700 2324f4fe 032784fe 832744fe  ....#$...'...'D.
 1730 e31ef7fc 13000000 8320c101 03248101  ......... ...$..
 1740 13010102 67800000 130101fe 232e1100  ....g.......#...
 1750 232c8100 13040102 232604fe 6f008002  #,......#&..o...
 1760 93077001 93860700 1306f004 8325c4fe  ..p..........%..
 1770 13050000 eff0dfef 8327c4fe 93871700  .........'......
 1780 2326f4fe 0327c4fe 9307c003 e31af7fc  #&...'..........
 1790 13000000 8320c101 03248101 13010102  ..... ...$......
 17a0 67800000 130101fe 232e8100 13040102  g.......#.......
 17b0 2326a4fe 2324b4fe 2322c4fe 832784fe  #&..#$..#"...'..
 17c0 93967700 b7071011 0327c4fe 33e7e600  ..w......'..3...
 17d0 23a0e700 b7071411 032744fe 23a0e700  #........'D.#...
 17e0 13000000 0324c101 13010102 67800000  .....$......g...
 17f0 93050500 93060000 13060000 13050000  ................
 1800 6f004021 130101ff 93050000 23248100  o.@!........#$..
 1810 23261100 13040500 ef008027 03a5c1c6  #&.........'....
 1820 8327c503 63840700 e7800700 13050400  .'..c...........
 1830 ef00c036 130101ff b7070000 23248100  ...6........#$..
 1840 37040000 13870700 13040400 3304e440  7...........3..@
 1850 23229100 23261100 13542440 93840700  #"..#&...T$@....
 1860 631c0400 03248100 8320c100 83244100  c....$... ...$A.
 1870 13010101 6fe0cffd 1304f4ff 93172400  ....o.........$.
 1880 b387f400 83a70700 e7800700 6ff05ffd  ............o._.
 1890 130101ff b7070000 23248100 37040000  ........#$..7...
 18a0 13870700 13040400 3304e440 23229100  ........3..@#"..
 18b0 23202101 23261100 13542440 93040000  # !.#&...T$@....
 18c0 13890700 63928404 efe08ff8 b7070000  ....c...........
 18d0 37040000 13870700 13040400 3304e440  7...........3..@
 18e0 13542440 93040000 13890700 639a8402  .T$@........c...
 18f0 8320c100 03248100 83244100 03290100  . ...$...$A..)..
 1900 13010101 67800000 93972400 b307f900  ....g.....$.....
 1910 83a70700 93841400 e7800700 6ff09ffa  ............o...
 1920 93972400 b307f900 83a70700 93841400  ..$.............
 1930 e7800700 6ff09ffb 1303f000 13070500  ....o...........
 1940 637ec302 9377f700 6390070a 63920508  c~...w..c...c...
 1950 937606ff 1376f600 b386e600 2320b700  .v...v......# ..
 1960 2322b700 2324b700 2326b700 13070701  #"..#$..#&......
 1970 e366d7fe 63140600 67800000 b306c340  .f..c...g......@
 1980 93962600 97020000 b3865600 6780c600  ..&.......V.g...
 1990 2307b700 a306b700 2306b700 a305b700  #.......#.......
 19a0 2305b700 a304b700 2304b700 a303b700  #.......#.......
 19b0 2303b700 a302b700 2302b700 a301b700  #.......#.......
 19c0 2301b700 a300b700 2300b700 67800000  #.......#...g...
 19d0 93f5f50f 93968500 b3e5d500 93960501  ................
 19e0 b3e5d500 6ff0dff6 93962700 97020000  ....o.....'.....
 19f0 b3865600 93820000 e78006fa 93800200  ..V.............
 1a00 938707ff 3307f740 3306f600 e378c3f6  ....3..@3....x..
 1a10 6ff0dff3 03a7c1c6 13030500 83278714  o............'..
 1a20 63960700 9307c714 2324f714 03a74700  c.......#$....G.
 1a30 1308f001 1305f0ff 634ae804 93182700  ........cJ....'.
 1a40 630c0302 33851701 2324c508 03a88718  c...3...#$......
 1a50 13061000 3316e600 3368c800 23a40719  ....3...3h..#...
 1a60 2324d510 93062000 6318d300 83a6c718  #$.... .c.......
 1a70 33e6c600 23a6c718 13071700 23a2e700  3...#.......#...
 1a80 b3871701 23a4b700 13050000 67800000  ....#.......g...
 1a90 130101fd 232e3101 83a9c1c6 232c4101  ....#.1.....#,A.
 1aa0 232a5101 23286101 23261102 23248102  #*Q.#(a.#&..#$..
 1ab0 23229102 23202103 23267101 930a0500  #"..# !.#&q.....
 1ac0 138a0500 130b1000 83a48914 638c0400  ............c...
 1ad0 03a44400 1309f4ff 13142400 33848400  ..D.......$.3...
 1ae0 63580902 8320c102 03248102 83244102  cX... ...$...$A.
 1af0 03290102 8329c101 032a8101 832a4101  .)...)...*...*A.
 1b00 032b0101 832bc100 13010103 67800000  .+...+......g...
 1b10 630c0a00 83274410 63884701 1309f9ff  c....'D.c.G.....
 1b20 1304c4ff 6ff0dffb 03a74400 83274400  ....o.....D..'D.
 1b30 1307f7ff 631c2703 23a22401 e38007fe  ....c.'.#.$.....
 1b40 83a68418 33172b01 83ab4400 b376d700  ....3.+...D..v..
 1b50 63920602 e7800700 83a74400 e39677f7  c.........D...w.
 1b60 83a78914 e38c97fa 6ff01ff6 23220400  ........o...#"..
 1b70 6ff0dffc 83a6c418 83254408 3377d700  o........%D.3w..
 1b80 63180700 13850a00 e7800700 6ff0dffc  c...........o...
 1b90 13850500 e7800700 6ff01ffc 93050000  ........o.......
 1ba0 13060000 93060000 13070000 93070000  ................
 1bb0 9308d005 73000000 63520502 130101ff  ....s...cR......
 1bc0 23248100 13040500 23261100 33048040  #$......#&..3..@
 1bd0 ef000001 23208500 6f000000 6f000000  ....# ..o...o...
 1be0 03a5c1c4 67800000                    ....g...        
Contents of section .data:
 1be8 00000000 00000000 00000000 00000000  ................
 1bf8 00000000 00000000 00000000 00000000  ................
 1c08 00000000 f41e0000 5c1f0000 c41f0000  ........\.......
 1c18 00000000 00000000 00000000 00000000  ................
 1c28 00000000 00000000 00000000 00000000  ................
 1c38 00000000 00000000 00000000 00000000  ................
 1c48 00000000 00000000 00000000 00000000  ................
 1c58 00000000 00000000 00000000 00000000  ................
 1c68 00000000 00000000 00000000 00000000  ................
 1c78 00000000 00000000 00000000 00000000  ................
 1c88 00000000 00000000 00000000 00000000  ................
 1c98 00000000 00000000 00000000 00000000  ................
 1ca8 00000000 00000000 01000000 00000000  ................
 1cb8 0e33cdab 34126de6 ecde0500 0b000000  .3..4.m.........
 1cc8 00000000 00000000 00000000 00000000  ................
 1cd8 00000000 00000000 00000000 00000000  ................
 1ce8 00000000 00000000 00000000 00000000  ................
 1cf8 00000000 00000000 00000000 00000000  ................
 1d08 00000000 00000000 00000000 00000000  ................
 1d18 00000000 00000000 00000000 00000000  ................
 1d28 00000000 00000000 00000000 00000000  ................
 1d38 00000000 00000000 00000000 00000000  ................
 1d48 00000000 00000000 00000000 00000000  ................
 1d58 00000000 00000000 00000000 00000000  ................
 1d68 00000000 00000000 00000000 00000000  ................
 1d78 00000000 00000000 00000000 00000000  ................
 1d88 00000000 00000000 00000000 00000000  ................
 1d98 00000000 00000000 00000000 00000000  ................
 1da8 00000000 00000000 00000000 00000000  ................
 1db8 00000000 00000000 00000000 00000000  ................
 1dc8 00000000 00000000 00000000 00000000  ................
 1dd8 00000000 00000000 00000000 00000000  ................
 1de8 00000000 00000000 00000000 00000000  ................
 1df8 00000000 00000000 00000000 00000000  ................
 1e08 00000000 00000000 00000000 00000000  ................
 1e18 00000000 00000000 00000000 00000000  ................
 1e28 00000000 00000000 00000000 00000000  ................
 1e38 00000000 00000000 00000000 00000000  ................
 1e48 00000000 00000000 00000000 00000000  ................
 1e58 00000000 00000000 00000000 00000000  ................
 1e68 00000000 00000000 00000000 00000000  ................
 1e78 00000000 00000000 00000000 00000000  ................
 1e88 00000000 00000000 00000000 00000000  ................
 1e98 00000000 00000000 00000000 00000000  ................
 1ea8 00000000 00000000 00000000 00000000  ................
 1eb8 00000000 00000000 00000000 00000000  ................
 1ec8 00000000 00000000 00000000 00000000  ................
 1ed8 00000000 00000000 00000000 00000000  ................
 1ee8 00000000 00000000 00000000 00000000  ................
 1ef8 00000000 00000000 00000000 00000000  ................
 1f08 00000000 00000000 00000000 00000000  ................
 1f18 00000000 00000000 00000000 00000000  ................
 1f28 00000000 00000000 00000000 00000000  ................
 1f38 00000000 00000000 00000000 00000000  ................
 1f48 00000000 00000000 00000000 00000000  ................
 1f58 00000000 00000000 00000000 00000000  ................
 1f68 00000000 00000000 00000000 00000000  ................
 1f78 00000000 00000000 00000000 00000000  ................
 1f88 00000000 00000000 00000000 00000000  ................
 1f98 00000000 00000000 00000000 00000000  ................
 1fa8 00000000 00000000 00000000 00000000  ................
 1fb8 00000000 00000000 00000000 00000000  ................
 1fc8 00000000 00000000 00000000 00000000  ................
 1fd8 00000000 00000000 00000000 00000000  ................
 1fe8 00000000 00000000 00000000 00000000  ................
 1ff8 00000000 00000000 00000000 00000000  ................
 2008 00000000 00000000 00000000 00000000  ................
 2018 00000000 00000000 00000000 00000000  ................
 2028 00000000 00000000 00000000 081c0000  ................
 2038 17000000 00001011 00001411 00000c11  ................
 2048 00000811 00000011 00001811 081c0000  ................
Contents of section .eh_frame:
 2058 00000000                             ....            
Contents of section .fini_array:
 205c b0000000                             ....            
Contents of section .init_array:
 2060 04010000                             ....            
Contents of section .comment:
 0000 4743433a 2028474e 55292038 2e322e30  GCC: (GNU) 8.2.0
 0010 00                                   .               
Contents of section .debug_info:
 0000 b9020000 04000000 00000401 1f000000  ................
 0010 0c7d0000 00630000 00380100 00b81600  .}...c...8......
 0020 00000000 0002a400 00000108 0b3e0000  .............>..
 0030 00050338 20000003 0405696e 74000437  ...8 .....int..7
 0040 00000005 37000000 02160100 00010916  ....7...........
 0050 60000000 05033c20 00000604 43000000  `.....< ....C...
 0060 045a0000 00029b00 0000010a 16600000  .Z...........`..
 0070 00050340 20000007 53534400 010b1660  ...@ ...SSD....`
 0080 00000005 03442000 00020b00 0000010c  .....D .........
 0090 17600000 00050348 20000002 e1000000  .`.....H .......
 00a0 010d1660 00000005 034c2000 00025500  ...`.....L ...U.
 00b0 0000010e 16600000 00050350 20000008  .....`.....P ...
 00c0 f3000000 01d6010d a4170000 4c000000  ............L...
 00d0 019c0301 00000958 0001d601 1a370000  .......X.....7..
 00e0 0002916c 09590001 d6012137 00000002  ...l.Y....!7....
 00f0 91680a5d 00000001 d6012837 00000002  .h.]......(7....
 0100 9164000b 06010000 01cf010d 48170000  .d..........H...
 0110 5c000000 019c3301 00000c58 17000038  \.....3....X...8
 0120 0000000d 590001d0 010b3700 00000291  ....Y.....7.....
 0130 6c00000e 88000000 01c7010d dc160000  l...............
 0140 6c000000 019c8701 00000958 0001c701  l..........X....
 0150 24370000 0002916c 09590001 c7012b37  $7.....l.Y....+7
 0160 00000002 91680974 6f590001 c7013237  .....h.toY....27
 0170 00000002 91640a5d 00000001 c7013b37  .....d.]......;7
 0180 00000002 9160000e c2000000 01bf010d  .....`..........
 0190 70160000 6c000000 019cdb01 00000958  p...l..........X
 01a0 0001bf01 26370000 0002916c 09590001  ....&7.....l.Y..
 01b0 bf012d37 00000002 91680974 6f580001  ..-7.....h.toX..
 01c0 bf013437 00000002 91640a5d 00000001  ..47.....d.]....
 01d0 bf013d37 00000002 9160000f bd000000  ..=7.....`......
 01e0 01140638 01000038 15000001 9c100500  ...8...8........
 01f0 00000117 0c3e0000 00029148 10ad0000  .....>.....H....
 0200 0001180c 3e000000 02914410 00000000  ....>.....D.....
 0210 01190c3e 00000002 9140101a 00000001  ...>.....@......
 0220 1a063700 00000291 6c10ee00 0000011b  ..7.....l.......
 0230 06370000 00029168 10160000 00011c06  .7.....h........
 0240 37000000 02916410 ea000000 011d0637  7.....d........7
 0250 00000002 916010d7 00000001 1e063700  .....`........7.
 0260 00000291 5c10dc00 0000011f 06370000  ....\........7..
 0270 00029158 10b80000 00012006 37000000  ...X...... .7...
 0280 02915410 4d000000 01210637 00000002  ..T.M....!.7....
 0290 915010fc 00000001 22063700 00000391  .P......".7.....
 02a0 bc7f0c50 06000044 00000010 10000000  ...P...D........
 02b0 01790d37 00000002 914c0000 00        .y.7.....L...   
Contents of section .debug_abbrev:
 0000 01110125 0e130b03 0e1b0e11 01120610  ...%............
 0010 17000002 3400030e 3a0b3b0b 390b4913  ....4...:.;.9.I.
 0020 3f190218 00000324 000b0b3e 0b030800  ?......$...>....
 0030 00042600 49130000 05350049 13000006  ..&.I....5.I....
 0040 0f000b0b 49130000 07340003 083a0b3b  ....I....4...:.;
 0050 0b390b49 133f1902 18000008 2e01030e  .9.I.?..........
 0060 3a0b3b05 390b2719 11011206 40189742  :.;.9.'.....@..B
 0070 19011300 00090500 03083a0b 3b05390b  ..........:.;.9.
 0080 49130218 00000a05 00030e3a 0b3b0539  I..........:.;.9
 0090 0b491302 1800000b 2e01030e 3a0b3b05  .I..........:.;.
 00a0 390b1101 12064018 96421901 1300000c  9.....@..B......
 00b0 0b011101 12060000 0d340003 083a0b3b  .........4...:.;
 00c0 05390b49 13021800 000e2e01 030e3a0b  .9.I..........:.
 00d0 3b05390b 27191101 12064018 96421901  ;.9.'.....@..B..
 00e0 1300000f 2e013f19 030e3a0b 3b0b390b  ......?...:.;.9.
 00f0 11011206 40189642 19000010 3400030e  ....@..B....4...
 0100 3a0b3b0b 390b4913 02180000 00        :.;.9.I......   
Contents of section .debug_aranges:
 0000 1c000000 02000000 00000400 00000000  ................
 0010 38010000 b8160000 00000000 00000000  8...............
Contents of section .debug_line:
 0000 3b120000 02002100 00000101 fb0e0d00  ;.....!.........
 0010 01010101 00000001 00000173 72630000  ...........src..
 0020 6d61696e 2e630001 00000005 0d000502  main.c..........
 0030 38010000 03130105 0c030309 10000103  8...............
 0040 01090400 01030109 08000105 06030109  ................
 0050 08000103 01090400 01030109 04000103  ................
 0060 01090400 01030109 04000103 01090800  ................
 0070 01050203 06090800 01030109 04000103  ................
 0080 01091400 01030109 14000103 01091400  ................
 0090 01030109 14000103 01091400 01030109  ................
 00a0 14000103 01091400 01030209 14000103  ................
 00b0 01091400 01030109 14000103 01091400  ................
 00c0 01030109 14000103 01091400 01030209  ................
 00d0 14000103 01091000 01030109 10000103  ................
 00e0 01091000 01030109 10000103 01091000  ................
 00f0 01030109 10000103 01091000 01030109  ................
 0100 10000103 01091000 01030109 10000103  ................
 0110 01091000 01030109 10000103 01091000  ................
 0120 01030109 10000103 01091000 01030109  ................
 0130 10000103 01091000 01030109 10000103  ................
 0140 01091000 01030109 10000103 01091000  ................
 0150 01030109 10000103 01091000 01030109  ................
 0160 10000103 01091000 01030109 10000103  ................
 0170 01091000 01030109 10000103 01091000  ................
 0180 01030109 10000103 01091000 01030109  ................
 0190 10000103 01091000 01030109 10000103  ................
 01a0 01091000 01030109 10000103 01091000  ................
 01b0 01030109 10000103 01091000 01030109  ................
 01c0 10000103 01091000 01030109 10000103  ................
 01d0 01091000 01030109 10000103 01091000  ................
 01e0 01030109 10000103 01091000 01030109  ................
 01f0 10000103 01091000 01030109 10000103  ................
 0200 01091000 01030109 10000103 01091000  ................
 0210 01050303 05091000 01030309 10000105  ................
 0220 10030309 14000105 0d030009 08000105  ................
 0230 08030109 24000105 0b030109 04000105  ....$...........
 0240 0d030109 04000105 03030009 04000105  ................
 0250 07030109 04000105 0f030109 08000105  ................
 0260 0d030009 04000105 08030109 08000105  ................
 0270 0b030109 08000105 30000204 02037c09  ........0.....|.
 0280 08000105 03000204 01030009 0c000105  ................
 0290 06030b09 0c000105 09030109 0c000103  ................
 02a0 01090800 01050603 02090400 01050903  ................
 02b0 01090c00 01030109 08000105 06030209  ................
 02c0 08000105 09030109 0c000103 01090400  ................
 02d0 01050603 02090800 01050903 01090c00  ................
 02e0 01030109 08000105 06030209 08000105  ................
 02f0 09030109 0c000103 01090800 01050603  ................
 0300 02090400 01050903 01090c00 01030109  ................
 0310 08000105 06030209 08000105 09030109  ................
 0320 0c000103 01090400 01050603 02090800  ................
 0330 01050903 01090c00 01030109 08000105  ................
 0340 06030409 08000105 09030109 0c000105  ................
 0350 06030309 08000105 09030109 08000105  ................
 0360 06030309 08000105 09030109 0c000105  ................
 0370 06030309 08000105 09030109 08000105  ................
 0380 06030d09 08000105 14000204 01030009  ................
 0390 0c000105 24000204 02030009 0c000105  ....$...........
 03a0 34000204 03030009 0c000105 09030109  4...............
 03b0 0c000105 06030209 08000105 15000204  ................
 03c0 01030009 0c000105 25000204 02030009  ........%.......
 03d0 0c000105 35000204 03030009 0c000105  ....5...........
 03e0 09030109 0c000105 06030209 08000105  ................
 03f0 15000204 01030009 0c000105 24000204  ............$...
 0400 02030009 0c000105 09030109 0c000105  ................
 0410 06030209 08000105 15000204 01030009  ................
 0420 0c000105 25000204 02030009 0c000105  ....%...........
 0430 09030109 0c000105 06030209 08000105  ................
 0440 14000204 01030009 0c000105 23000204  ............#...
 0450 02030009 0c000105 32000204 03030009  ........2.......
 0460 0c000105 09030109 0c000103 01090800  ................
 0470 01050603 02090800 01051500 02040103  ................
 0480 00090c00 01052400 02040203 00090c00  ......$.........
 0490 01053400 02040303 00090c00 01050903  ..4.............
 04a0 01090c00 01030109 08000105 06030209  ................
 04b0 08000105 14000204 01030009 0c000105  ................
 04c0 24000204 02030009 0c000105 33000204  $...........3...
 04d0 03030009 0c000105 09030109 0c000103  ................
 04e0 01090800 01050603 02090800 01051500  ................
 04f0 02040103 00090c00 01052500 02040203  ..........%.....
 0500 00090c00 01053500 02040303 00090c00  ......5.........
 0510 01050903 01090c00 01030109 08000105  ................
 0520 06030409 08000105 15000204 01030009  ................
 0530 0c000105 25000204 02030009 0c000105  ....%...........
 0540 35000204 03030009 0c000105 09030109  5...............
 0550 0c000105 06030209 08000105 15000204  ................
 0560 01030009 0c000105 25000204 02030009  ........%.......
 0570 0c000105 35000204 03030009 0c000105  ....5...........
 0580 09030109 0c000105 06030209 08000105  ................
 0590 15000204 01030009 0c000105 24000204  ............$...
 05a0 02030009 0c000105 09030109 0c000105  ................
 05b0 06030209 08000105 15000204 01030009  ................
 05c0 0c000105 25000204 02030009 0c000105  ....%...........
 05d0 09030109 0c000105 06030209 08000105  ................
 05e0 15000204 01030009 0c000105 24000204  ............$...
 05f0 02030009 0c000105 33000204 03030009  ........3.......
 0600 0c000105 09030109 0c000103 01090800  ................
 0610 01050603 02090800 01051500 02040103  ................
 0620 00090c00 01052400 02040203 00090c00  ......$.........
 0630 01053400 02040303 00090c00 01050903  ..4.............
 0640 01090c00 01030109 08000105 06030209  ................
 0650 08000105 15000204 01030009 0c000105  ................
 0660 25000204 02030009 0c000105 34000204  %...........4...
 0670 03030009 0c000105 09030109 0c000103  ................
 0680 01090800 01050603 02090800 01051500  ................
 0690 02040103 00090c00 01052500 02040203  ..........%.....
 06a0 00090c00 01053500 02040303 00090c00  ......5.........
 06b0 01050903 01090c00 01030109 08000105  ................
 06c0 06030409 08000105 15000204 01030009  ................
 06d0 0c000105 25000204 02030009 0c000105  ....%...........
 06e0 35000204 03030009 0c000105 0c030109  5...............
 06f0 0c000105 06030209 08000105 15000204  ................
 0700 01030009 0c000105 25000204 02030009  ........%.......
 0710 0c000105 35000204 03030009 0c000105  ....5...........
 0720 0c030109 0c000105 06030209 08000105  ................
 0730 15000204 01030009 0c000105 25000204  ............%...
 0740 02030009 0c000105 35000204 03030009  ........5.......
 0750 0c000105 0c030109 0c000105 06030209  ................
 0760 08000105 15000204 01030009 0c000105  ................
 0770 25000204 02030009 0c000105 35000204  %...........5...
 0780 03030009 0c000105 0c030109 0c000105  ................
 0790 06030209 08000105 15000204 01030009  ................
 07a0 0c000105 25000204 02030009 0c000105  ....%...........
 07b0 35000204 03030009 0c000105 0c030109  5...............
 07c0 0c000105 06030209 08000105 15000204  ................
 07d0 01030009 0c000105 25000204 02030009  ........%.......
 07e0 0c000105 35000204 03030009 0c000105  ....5...........
 07f0 0c030109 0c000105 06030209 08000105  ................
 0800 15000204 01030009 0c000105 25000204  ............%...
 0810 02030009 0c000105 35000204 03030009  ........5.......
 0820 0c000105 0c030109 0c000105 06030209  ................
 0830 08000105 15000204 01030009 0c000105  ................
 0840 25000204 02030009 0c000105 35000204  %...........5...
 0850 03030009 0c000105 0c030109 0c000105  ................
 0860 06030509 08000105 15000204 01030009  ................
 0870 0c000105 25000204 02030009 0c000105  ....%...........
 0880 34000204 03030009 0c000105 0c030109  4...............
 0890 0c000103 01090800 01050603 02090800  ................
 08a0 01051500 02040103 00090c00 01052500  ..............%.
 08b0 02040203 00090c00 01053400 02040303  ..........4.....
 08c0 00090c00 01050c03 01090c00 01030109  ................
 08d0 08000105 06030209 08000105 15000204  ................
 08e0 01030009 0c000105 25000204 02030009  ........%.......
 08f0 0c000105 34000204 03030009 0c000105  ....4...........
 0900 0c030109 0c000103 01090800 01050603  ................
 0910 02090800 01051500 02040103 00090c00  ................
 0920 01052500 02040203 00090c00 01053400  ..%...........4.
 0930 02040303 00090c00 01050c03 01090c00  ................
 0940 01030109 08000105 06030209 08000105  ................
 0950 15000204 01030009 0c000105 25000204  ............%...
 0960 02030009 0c000105 35000204 03030009  ........5.......
 0970 0c000105 0c030109 0c000103 01090800  ................
 0980 01050603 02090800 01051500 02040103  ................
 0990 00090c00 01052500 02040203 00090c00  ......%.........
 09a0 01053500 02040303 00090c00 01050c03  ..5.............
 09b0 01090c00 01030109 08000105 06030209  ................
 09c0 08000105 15000204 01030009 0c000105  ................
 09d0 25000204 02030009 0c000105 35000204  %...........5...
 09e0 03030009 0c000105 0c030109 0c000103  ................
 09f0 01090800 01050603 02090800 01051500  ................
 0a00 02040103 00090c00 01052500 02040203  ..........%.....
 0a10 00090c00 01053500 02040303 00090c00  ......5.........
 0a20 01050c03 01090c00 01030109 08000105  ................
 0a30 0d030409 08000105 1c000204 01030009  ................
 0a40 0c000105 2c000204 02030009 0c000105  ....,...........
 0a50 3b000204 03030009 0c000105 13030109  ;...............
 0a60 0c000103 01090800 01050d03 02090800  ................
 0a70 01051c00 02040103 00090c00 01052c00  ..............,.
 0a80 02040203 00090c00 01053b00 02040303  ..........;.....
 0a90 00090c00 01051303 01090c00 01030109  ................
 0aa0 08000105 0d030209 08000105 1c000204  ................
 0ab0 01030009 0c000105 2b000204 02030009  ........+.......
 0ac0 0c000105 3a000204 03030009 0c000105  ....:...........
 0ad0 13030109 0c000103 01090800 01050d03  ................
 0ae0 02090800 01051c00 02040103 00090c00  ................
 0af0 01052c00 02040203 00090c00 01053b00  ..,...........;.
 0b00 02040303 00090c00 01051303 01090c00  ................
 0b10 01030109 08000105 0d030209 08000105  ................
 0b20 1c000204 01030009 0c000105 2c000204  ............,...
 0b30 02030009 0c000105 3c000204 03030009  ........<.......
 0b40 0c000105 13030109 0c000103 01090800  ................
 0b50 01050d03 02090800 01051c00 02040103  ................
 0b60 00090c00 01052c00 02040203 00090c00  ......,.........
 0b70 01053c00 02040303 00090c00 01051303  ..<.............
 0b80 01090c00 01030109 08000105 0d030409  ................
 0b90 08000105 1c000204 01030009 0c000105  ................
 0ba0 2c000204 02030009 0c000105 3b000204  ,...........;...
 0bb0 03030009 0c000105 13030109 0c000103  ................
 0bc0 01090800 01050d03 02090800 01051c00  ................
 0bd0 02040103 00090c00 01052c00 02040203  ..........,.....
 0be0 00090c00 01053b00 02040303 00090c00  ......;.........
 0bf0 01051303 01090c00 01030109 08000105  ................
 0c00 0d030209 08000105 1c000204 01030009  ................
 0c10 0c000105 2b000204 02030009 0c000105  ....+...........
 0c20 3b000204 03030009 0c000105 13030109  ;...............
 0c30 0c000103 01090800 01050d03 02090800  ................
 0c40 01051c00 02040103 00090c00 01052c00  ..............,.
 0c50 02040203 00090c00 01053c00 02040303  ..........<.....
 0c60 00090c00 01051303 01090c00 01030109  ................
 0c70 08000105 0d030209 08000105 1c000204  ................
 0c80 01030009 0c000105 2c000204 02030009  ........,.......
 0c90 0c000105 3c000204 03030009 0c000105  ....<...........
 0ca0 13030109 0c000103 01090800 01050d03  ................
 0cb0 02090800 01051c00 02040103 00090c00  ................
 0cc0 01052c00 02040203 00090c00 01053c00  ..,...........<.
 0cd0 02040303 00090c00 01051303 01090c00  ................
 0ce0 01030109 08000105 14030409 08000105  ................
 0cf0 23000204 01030009 0c000105 33000204  #...........3...
 0d00 02030009 0c000105 1a030109 0c000105  ................
 0d10 14030209 08000105 23000204 01030009  ........#.......
 0d20 0c000105 33000204 02030009 0c000105  ....3...........
 0d30 1a030109 0c000105 14030209 08000105  ................
 0d40 23000204 01030009 0c000105 33000204  #...........3...
 0d50 02030009 0c000105 1a030109 0c000105  ................
 0d60 14030209 08000105 23000204 01030009  ........#.......
 0d70 0c000105 33000204 02030009 0c000105  ....3...........
 0d80 1a030109 0c000105 14030209 08000105  ................
 0d90 23000204 01030009 0c000105 32000204  #...........2...
 0da0 02030009 08000105 41000204 03030009  ........A.......
 0db0 0c000105 1a030109 0c000105 14030209  ................
 0dc0 08000105 23000204 01030009 0c000105  ....#...........
 0dd0 32000204 02030009 08000105 42000204  2...........B...
 0de0 03030009 0c000105 1a030109 0c000105  ................
 0df0 14030209 08000105 23000204 01030009  ........#.......
 0e00 0c000105 32000204 02030009 08000105  ....2...........
 0e10 42000204 03030009 0c000105 1a030109  B...............
 0e20 0c000105 14030209 08000105 23000204  ............#...
 0e30 01030009 0c000105 32000204 02030009  ........2.......
 0e40 08000105 42000204 03030009 0c000105  ....B...........
 0e50 1a030109 0c000105 14030209 08000105  ................
 0e60 23000204 01030009 0c000105 33000204  #...........3...
 0e70 02030009 0c000105 43000204 03030009  ........C.......
 0e80 0c000105 1a030109 0c000105 14030209  ................
 0e90 08000105 23000204 01030009 0c000105  ....#...........
 0ea0 33000204 02030009 0c000105 43000204  3...........C...
 0eb0 03030009 0c000105 1a030109 0c000105  ................
 0ec0 14030209 08000105 23000204 01030009  ........#.......
 0ed0 0c000105 33000204 02030009 0c000105  ....3...........
 0ee0 43000204 03030009 0c000105 1a030109  C...............
 0ef0 0c000105 14030209 08000105 23000204  ............#...
 0f00 01030009 0c000105 33000204 02030009  ........3.......
 0f10 0c000105 43000204 03030009 0c000105  ....C...........
 0f20 1a030109 0c000105 14030209 08000105  ................
 0f30 23000204 01030009 0c000105 33000204  #...........3...
 0f40 02030009 0c000105 42000204 03030009  ........B.......
 0f50 0c000105 1a030109 0c000105 14030209  ................
 0f60 08000105 23000204 01030009 0c000105  ....#...........
 0f70 33000204 02030009 0c000105 43000204  3...........C...
 0f80 03030009 0c000105 1a030109 0c000105  ................
 0f90 14030209 08000105 23000204 01030009  ........#.......
 0fa0 0c000105 33000204 02030009 0c000105  ....3...........
 0fb0 43000204 03030009 0c000105 1a030109  C...............
 0fc0 0c000105 14030209 08000105 23000204  ............#...
 0fd0 01030009 0c000105 33000204 02030009  ........3.......
 0fe0 0c000105 43000204 03030009 0c000105  ....C...........
 0ff0 1a030109 0c000105 14030209 08000105  ................
 1000 23000204 01030009 0c000105 33000204  #...........3...
 1010 02030009 0c000105 42000204 03030009  ........B.......
 1020 0c000105 1a030109 0c000105 14030209  ................
 1030 08000105 23000204 01030009 0c000105  ....#...........
 1040 33000204 02030009 0c000105 43000204  3...........C...
 1050 03030009 0c000105 1a030109 0c000105  ................
 1060 14030209 08000105 23000204 01030009  ........#.......
 1070 0c000105 33000204 02030009 0c000105  ....3...........
 1080 43000204 03030009 0c000105 1a030109  C...............
 1090 0c000105 14030209 08000105 23000204  ............#...
 10a0 01030009 0c000105 33000204 02030009  ........3.......
 10b0 0c000105 43000204 03030009 0c000105  ....C...........
 10c0 1a030109 0c000105 0c030c09 08000103  ................
 10d0 01090800 01050803 01090800 01030109  ................
 10e0 10000105 0b030309 10000105 03030009  ................
 10f0 04000105 0b030009 04000105 09030009  ................
 1100 04000105 0a030109 04000105 03030009  ................
 1110 04000105 0a030009 04000105 08030009  ................
 1120 04000105 0303b67d 09040001 054403cf  .......}.....D..
 1130 02090400 01050503 01092000 01050203  .......... .....
 1140 01090c00 01050300 02040203 01090400  ................
 1150 01051400 02040203 7f091000 01050200  ................
 1160 02040103 00090c00 01050103 03090c00  ................
 1170 01054203 03091400 01050503 01092000  ..B........... .
 1180 01050203 01090c00 01050300 02040203  ................
 1190 01090400 01051400 02040203 7f091000  ................
 11a0 01050200 02040103 00090c00 01050103  ................
 11b0 03090c00 01051f03 03091400 01050b03  ................
 11c0 01091000 01050203 00090400 01050300  ................
 11d0 02040303 01090400 01051c00 02040303  ................
 11e0 7f091800 01050200 02040103 00090c00  ................
 11f0 01050103 03090c00 01052f03 03091400  ........../.....
 1200 01051003 01091800 01050203 00090800  ................
 1210 01051603 00090400 01050b03 00090800  ................
 1220 01050203 01090400 01050c03 00090400  ................
 1230 01050103 01090800 01091000 000101    ............... 
Contents of section .debug_str:
 0000 464f4f44 5f434f4c 4f52004c 45445300  FOOD_COLOR.LEDS.
 0010 54494d45 52006f6c 645f5843 4f520047  TIMER.old_XCOR.G
 0020 4e552043 31372038 2e322e30 202d6d61  NU C17 8.2.0 -ma
 0030 7263683d 72763332 69202d6d 6162693d  rch=rv32i -mabi=
 0040 696c7033 32202d67 202d4f30 00627574  ilp32 -g -O0.but
 0050 746f6e73 00425554 544f4e53 00636f6c  tons.BUTTONS.col
 0060 6f72002f 686f6d65 2f737475 64656e74  or./home/student
 0070 2f6f7474 65722d74 6f6f6c73 00737263  /otter-tools.src
 0080 2f6d6169 6e2e6300 64726177 5f766572  /main.c.draw_ver
 0090 74696361 6c5f6c69 6e650056 475f434f  tical_line.VG_CO
 00a0 4c4f5200 42475f43 4f4c4f52 0057414c  LOR.BG_COLOR.WAL
 00b0 4c5f434f 4c4f5200 464c4147 006d6169  L_COLOR.FLAG.mai
 00c0 6e006472 61775f68 6f72697a 6f6e7461  n.draw_horizonta
 00d0 6c5f6c69 6e650058 44495200 59444952  l_line.XDIR.YDIR
 00e0 00535749 54434845 53006f6c 645f5943  .SWITCHES.old_YC
 00f0 4f520064 7261775f 646f7400 4d41585f  OR.draw_dot.MAX_
 0100 434f554e 54006472 61775f62 61636b67  COUNT.draw_backg
 0110 726f756e 64005647 5f414444 5200      round.VG_ADDR.  
Contents of section .debug_frame:
 0000 0c000000 ffffffff 0100017c 010d0200  ...........|....
 0010 18000000 00000000 38010000 38150000  ........8...8...
 0020 440e5048 81018802 440c0800 20000000  D.PH....D... ...
 0030 00000000 70160000 6c000000 440e2048  ....p...l...D. H
 0040 81018802 440c0800 0250c144 c8440d02  ....D....P.D.D..
 0050 20000000 00000000 dc160000 6c000000   ...........l...
 0060 440e2048 81018802 440c0800 0250c144  D. H....D....P.D
 0070 c8440d02 20000000 00000000 48170000  .D.. .......H...
 0080 5c000000 440e2048 81018802 440c0800  \...D. H....D...
 0090 0240c144 c8440d02 1c000000 00000000  .@.D.D..........
 00a0 a4170000 4c000000 440e2044 8801440c  ....L...D. D..D.
 00b0 080078c8 440d0200                    ..x.D...        

Disassembly of section .text.init:

00000000 <entry>:
   0:	auipc	sp,0x10
   4:	addi	sp,sp,-32 # ffe0 <__global_pointer$+0xdbf8>
   8:	jal	ra,138 <main>

0000000c <end>:
   c:	j	c <end>

Disassembly of section .text:

00000010 <_start>:
      10:	auipc	gp,0x2
      14:	addi	gp,gp,984 # 23e8 <__global_pointer$>
      18:	addi	a0,gp,-912 # 2058 <_edata>
      1c:	addi	a2,gp,-912 # 2058 <_edata>
      20:	sub	a2,a2,a0
      24:	li	a1,0
      28:	jal	ra,1938 <memset>
      2c:	auipc	a0,0x2
      30:	addi	a0,a0,-2040 # 1834 <__libc_fini_array>
      34:	jal	ra,17f0 <atexit>
      38:	jal	ra,1890 <__libc_init_array>
      3c:	lw	a0,0(sp)
      40:	addi	a1,sp,4
      44:	li	a2,0
      48:	jal	ra,138 <main>
      4c:	j	1804 <exit>

00000050 <_fini>:
      50:	ret

00000054 <deregister_tm_clones>:
      54:	addi	a4,gp,-908 # 205c <__TMC_END__>
      58:	addi	a5,gp,-908 # 205c <__TMC_END__>
      5c:	beq	a5,a4,74 <deregister_tm_clones+0x20>
      60:	lui	t1,0x0
      64:	mv	t1,t1
      68:	beqz	t1,74 <deregister_tm_clones+0x20>
      6c:	addi	a0,gp,-908 # 205c <__TMC_END__>
      70:	jr	t1 # 0 <entry>
      74:	ret

00000078 <register_tm_clones>:
      78:	addi	a1,gp,-908 # 205c <__TMC_END__>
      7c:	addi	a5,gp,-908 # 205c <__TMC_END__>
      80:	sub	a1,a1,a5
      84:	srai	a1,a1,0x2
      88:	srli	a5,a1,0x1f
      8c:	add	a1,a5,a1
      90:	srai	a1,a1,0x1
      94:	beqz	a1,ac <register_tm_clones+0x34>
      98:	lui	t1,0x0
      9c:	mv	t1,t1
      a0:	beqz	t1,ac <register_tm_clones+0x34>
      a4:	addi	a0,gp,-908 # 205c <__TMC_END__>
      a8:	jr	t1 # 0 <entry>
      ac:	ret

000000b0 <__do_global_dtors_aux>:
      b0:	lui	a5,0x2
      b4:	lbu	a4,-1048(a5) # 1be8 <completed.5430>
      b8:	bnez	a4,100 <__do_global_dtors_aux+0x50>
      bc:	addi	sp,sp,-16
      c0:	sw	s0,8(sp)
      c4:	sw	ra,12(sp)
      c8:	mv	s0,a5
      cc:	jal	ra,54 <deregister_tm_clones>
      d0:	lui	a5,0x0
      d4:	mv	a5,a5
      d8:	beqz	a5,e8 <__do_global_dtors_aux+0x38>
      dc:	addi	a0,gp,-912 # 2058 <_edata>
      e0:	auipc	ra,0x0
      e4:	jalr	zero # 0 <entry>
      e8:	li	a5,1
      ec:	sb	a5,-1048(s0)
      f0:	lw	ra,12(sp)
      f4:	lw	s0,8(sp)
      f8:	addi	sp,sp,16
      fc:	ret
     100:	ret

00000104 <frame_dummy>:
     104:	lui	a5,0x0
     108:	mv	a5,a5
     10c:	beqz	a5,134 <frame_dummy+0x30>
     110:	lui	a1,0x2
     114:	addi	sp,sp,-16
     118:	addi	a1,a1,-1044 # 1bec <object.5435>
     11c:	addi	a0,gp,-912 # 2058 <_edata>
     120:	sw	ra,12(sp)
     124:	auipc	ra,0x0
     128:	jalr	zero # 0 <entry>
     12c:	lw	ra,12(sp)
     130:	addi	sp,sp,16
     134:	j	78 <register_tm_clones>

00000138 <main>:
static void draw_dot(int X, int Y, int color);
static void draw_horizontal_line(int X, int Y, int toX, int color);
static void draw_vertical_line(int X, int Y, int toY, int color);
static void draw_background();

void main() {
     138:	addi	sp,sp,-80
     13c:	sw	ra,76(sp)
     140:	sw	s0,72(sp)
     144:	addi	s0,sp,80

	/********** Variable declarations **********/
	const int COLOR = 0x00;
     148:	sw	zero,-56(s0)
	const int WALL_COLOR = 0x9D;
     14c:	li	a5,157
     150:	sw	a5,-60(s0)
	const int FOOD_COLOR = 0x60;
     154:	li	a5,96
     158:	sw	a5,-64(s0)
	int XCOR = 0;
     15c:	sw	zero,-20(s0)
	int YCOR = 0;
     160:	sw	zero,-24(s0)
	int old_XCOR = 0;
     164:	sw	zero,-28(s0)
	int old_YCOR = 0;
     168:	sw	zero,-32(s0)
	int XDIR = 1;
     16c:	li	a5,1
     170:	sw	a5,-36(s0)
	int YDIR = 1;
     174:	li	a5,1
     178:	sw	a5,-40(s0)
	int FLAG;
	int buttons;
	int MAX_COUNT;

	/********** Initialize background **********/
	draw_background();
     17c:	jal	ra,1748 <draw_background>
	draw_vertical_line(10,10,49,WALL_COLOR);
     180:	lw	a3,-60(s0)
     184:	li	a2,49
     188:	li	a1,10
     18c:	li	a0,10
     190:	jal	ra,16dc <draw_vertical_line>
	draw_vertical_line(68,10,49,WALL_COLOR);
     194:	lw	a3,-60(s0)
     198:	li	a2,49
     19c:	li	a1,10
     1a0:	li	a0,68
     1a4:	jal	ra,16dc <draw_vertical_line>
	draw_vertical_line(34,0,10,WALL_COLOR);
     1a8:	lw	a3,-60(s0)
     1ac:	li	a2,10
     1b0:	li	a1,0
     1b4:	li	a0,34
     1b8:	jal	ra,16dc <draw_vertical_line>
	draw_vertical_line(45,0,10,WALL_COLOR);
     1bc:	lw	a3,-60(s0)
     1c0:	li	a2,10
     1c4:	li	a1,0
     1c8:	li	a0,45
     1cc:	jal	ra,16dc <draw_vertical_line>
	draw_vertical_line(34,49,59,WALL_COLOR);
     1d0:	lw	a3,-60(s0)
     1d4:	li	a2,59
     1d8:	li	a1,49
     1dc:	li	a0,34
     1e0:	jal	ra,16dc <draw_vertical_line>
	draw_vertical_line(45,49,59,WALL_COLOR);
     1e4:	lw	a3,-60(s0)
     1e8:	li	a2,59
     1ec:	li	a1,49
     1f0:	li	a0,45
     1f4:	jal	ra,16dc <draw_vertical_line>
	draw_vertical_line(39,24,35,WALL_COLOR);
     1f8:	lw	a3,-60(s0)
     1fc:	li	a2,35
     200:	li	a1,24
     204:	li	a0,39
     208:	jal	ra,16dc <draw_vertical_line>
	draw_vertical_line(40,24,35,WALL_COLOR);
     20c:	lw	a3,-60(s0)
     210:	li	a2,35
     214:	li	a1,24
     218:	li	a0,40
     21c:	jal	ra,16dc <draw_vertical_line>

	draw_horizontal_line(34,29,45,WALL_COLOR);
     220:	lw	a3,-60(s0)
     224:	li	a2,45
     228:	li	a1,29
     22c:	li	a0,34
     230:	jal	ra,1670 <draw_horizontal_line>
	draw_horizontal_line(34,30,45,WALL_COLOR);
     234:	lw	a3,-60(s0)
     238:	li	a2,45
     23c:	li	a1,30
     240:	li	a0,34
     244:	jal	ra,1670 <draw_horizontal_line>
	draw_horizontal_line(19,10,34,WALL_COLOR);
     248:	lw	a3,-60(s0)
     24c:	li	a2,34
     250:	li	a1,10
     254:	li	a0,19
     258:	jal	ra,1670 <draw_horizontal_line>
	draw_horizontal_line(19,49,34,WALL_COLOR);
     25c:	lw	a3,-60(s0)
     260:	li	a2,34
     264:	li	a1,49
     268:	li	a0,19
     26c:	jal	ra,1670 <draw_horizontal_line>
	draw_horizontal_line(45,10,59,WALL_COLOR);
     270:	lw	a3,-60(s0)
     274:	li	a2,59
     278:	li	a1,10
     27c:	li	a0,45
     280:	jal	ra,1670 <draw_horizontal_line>
	draw_horizontal_line(45,49,59,WALL_COLOR);
     284:	lw	a3,-60(s0)
     288:	li	a2,59
     28c:	li	a1,49
     290:	li	a0,45
     294:	jal	ra,1670 <draw_horizontal_line>

	draw_dot( 39, 6, FOOD_COLOR );
     298:	lw	a2,-64(s0)
     29c:	li	a1,6
     2a0:	li	a0,39
     2a4:	jal	ra,17a4 <draw_dot>
	draw_dot( 40, 6, FOOD_COLOR );
     2a8:	lw	a2,-64(s0)
     2ac:	li	a1,6
     2b0:	li	a0,40
     2b4:	jal	ra,17a4 <draw_dot>
	draw_dot( 42, 56, FOOD_COLOR );
     2b8:	lw	a2,-64(s0)
     2bc:	li	a1,56
     2c0:	li	a0,42
     2c4:	jal	ra,17a4 <draw_dot>
	draw_dot( 47, 37, FOOD_COLOR );
     2c8:	lw	a2,-64(s0)
     2cc:	li	a1,37
     2d0:	li	a0,47
     2d4:	jal	ra,17a4 <draw_dot>
	draw_dot( 48, 17, FOOD_COLOR );
     2d8:	lw	a2,-64(s0)
     2dc:	li	a1,17
     2e0:	li	a0,48
     2e4:	jal	ra,17a4 <draw_dot>
	draw_dot( 49, 17, FOOD_COLOR );
     2e8:	lw	a2,-64(s0)
     2ec:	li	a1,17
     2f0:	li	a0,49
     2f4:	jal	ra,17a4 <draw_dot>
	draw_dot( 53, 26, FOOD_COLOR );
     2f8:	lw	a2,-64(s0)
     2fc:	li	a1,26
     300:	li	a0,53
     304:	jal	ra,17a4 <draw_dot>
	draw_dot( 53, 27, FOOD_COLOR );
     308:	lw	a2,-64(s0)
     30c:	li	a1,27
     310:	li	a0,53
     314:	jal	ra,17a4 <draw_dot>
	draw_dot( 56, 44, FOOD_COLOR );
     318:	lw	a2,-64(s0)
     31c:	li	a1,44
     320:	li	a0,56
     324:	jal	ra,17a4 <draw_dot>
	draw_dot( 56, 45, FOOD_COLOR );
     328:	lw	a2,-64(s0)
     32c:	li	a1,45
     330:	li	a0,56
     334:	jal	ra,17a4 <draw_dot>
	draw_dot( 57, 44, FOOD_COLOR );
     338:	lw	a2,-64(s0)
     33c:	li	a1,44
     340:	li	a0,57
     344:	jal	ra,17a4 <draw_dot>
	draw_dot( 57, 45, FOOD_COLOR );
     348:	lw	a2,-64(s0)
     34c:	li	a1,45
     350:	li	a0,57
     354:	jal	ra,17a4 <draw_dot>
	draw_dot( 60, 36, FOOD_COLOR );
     358:	lw	a2,-64(s0)
     35c:	li	a1,36
     360:	li	a0,60
     364:	jal	ra,17a4 <draw_dot>
	draw_dot( 60, 18, FOOD_COLOR );
     368:	lw	a2,-64(s0)
     36c:	li	a1,18
     370:	li	a0,60
     374:	jal	ra,17a4 <draw_dot>
	draw_dot( 1, 13, FOOD_COLOR );
     378:	lw	a2,-64(s0)
     37c:	li	a1,13
     380:	li	a0,1
     384:	jal	ra,17a4 <draw_dot>
	draw_dot( 6, 23, FOOD_COLOR );
     388:	lw	a2,-64(s0)
     38c:	li	a1,23
     390:	li	a0,6
     394:	jal	ra,17a4 <draw_dot>
	draw_dot( 2, 39, FOOD_COLOR );
     398:	lw	a2,-64(s0)
     39c:	li	a1,39
     3a0:	li	a0,2
     3a4:	jal	ra,17a4 <draw_dot>
	draw_dot( 5, 53, FOOD_COLOR );
     3a8:	lw	a2,-64(s0)
     3ac:	li	a1,53
     3b0:	li	a0,5
     3b4:	jal	ra,17a4 <draw_dot>
	draw_dot( 5, 54, FOOD_COLOR );
     3b8:	lw	a2,-64(s0)
     3bc:	li	a1,54
     3c0:	li	a0,5
     3c4:	jal	ra,17a4 <draw_dot>
	draw_dot( 6, 54, FOOD_COLOR );
     3c8:	lw	a2,-64(s0)
     3cc:	li	a1,54
     3d0:	li	a0,6
     3d4:	jal	ra,17a4 <draw_dot>
	draw_dot( 19, 56, FOOD_COLOR );
     3d8:	lw	a2,-64(s0)
     3dc:	li	a1,56
     3e0:	li	a0,19
     3e4:	jal	ra,17a4 <draw_dot>
	draw_dot( 30, 52, FOOD_COLOR );
     3e8:	lw	a2,-64(s0)
     3ec:	li	a1,52
     3f0:	li	a0,30
     3f4:	jal	ra,17a4 <draw_dot>
	draw_dot( 19, 5, FOOD_COLOR );
     3f8:	lw	a2,-64(s0)
     3fc:	li	a1,5
     400:	li	a0,19
     404:	jal	ra,17a4 <draw_dot>
	draw_dot( 21, 3, FOOD_COLOR );
     408:	lw	a2,-64(s0)
     40c:	li	a1,3
     410:	li	a0,21
     414:	jal	ra,17a4 <draw_dot>
	draw_dot( 16, 1, FOOD_COLOR );
     418:	lw	a2,-64(s0)
     41c:	li	a1,1
     420:	li	a0,16
     424:	jal	ra,17a4 <draw_dot>
	draw_dot( 7, 1, FOOD_COLOR );
     428:	lw	a2,-64(s0)
     42c:	li	a1,1
     430:	li	a0,7
     434:	jal	ra,17a4 <draw_dot>
	draw_dot( 16, 2, FOOD_COLOR );
     438:	lw	a2,-64(s0)
     43c:	li	a1,2
     440:	li	a0,16
     444:	jal	ra,17a4 <draw_dot>
	draw_dot( 51, 2, FOOD_COLOR );
     448:	lw	a2,-64(s0)
     44c:	li	a1,2
     450:	li	a0,51
     454:	jal	ra,17a4 <draw_dot>
	draw_dot( 56, 6, FOOD_COLOR );
     458:	lw	a2,-64(s0)
     45c:	li	a1,6
     460:	li	a0,56
     464:	jal	ra,17a4 <draw_dot>
	draw_dot( 64, 2, FOOD_COLOR );
     468:	lw	a2,-64(s0)
     46c:	li	a1,2
     470:	li	a0,64
     474:	jal	ra,17a4 <draw_dot>
	draw_dot( 65, 2, FOOD_COLOR );
     478:	lw	a2,-64(s0)
     47c:	li	a1,2
     480:	li	a0,65
     484:	jal	ra,17a4 <draw_dot>
	draw_dot( 65, 3, FOOD_COLOR );
     488:	lw	a2,-64(s0)
     48c:	li	a1,3
     490:	li	a0,65
     494:	jal	ra,17a4 <draw_dot>
	draw_dot( 75, 4, FOOD_COLOR );
     498:	lw	a2,-64(s0)
     49c:	li	a1,4
     4a0:	li	a0,75
     4a4:	jal	ra,17a4 <draw_dot>
	draw_dot( 71, 24, FOOD_COLOR );
     4a8:	lw	a2,-64(s0)
     4ac:	li	a1,24
     4b0:	li	a0,71
     4b4:	jal	ra,17a4 <draw_dot>
	draw_dot( 72, 24, FOOD_COLOR );
     4b8:	lw	a2,-64(s0)
     4bc:	li	a1,24
     4c0:	li	a0,72
     4c4:	jal	ra,17a4 <draw_dot>
	draw_dot( 76, 41, FOOD_COLOR );
     4c8:	lw	a2,-64(s0)
     4cc:	li	a1,41
     4d0:	li	a0,76
     4d4:	jal	ra,17a4 <draw_dot>
	draw_dot( 74, 55, FOOD_COLOR );
     4d8:	lw	a2,-64(s0)
     4dc:	li	a1,55
     4e0:	li	a0,74
     4e4:	jal	ra,17a4 <draw_dot>
	draw_dot( 57, 56, FOOD_COLOR );
     4e8:	lw	a2,-64(s0)
     4ec:	li	a1,56
     4f0:	li	a0,57
     4f4:	jal	ra,17a4 <draw_dot>
	draw_dot( 56, 56, FOOD_COLOR );
     4f8:	lw	a2,-64(s0)
     4fc:	li	a1,56
     500:	li	a0,56
     504:	jal	ra,17a4 <draw_dot>
	draw_dot( 15, 30, FOOD_COLOR );
     508:	lw	a2,-64(s0)
     50c:	li	a1,30
     510:	li	a0,15
     514:	jal	ra,17a4 <draw_dot>
	draw_dot( 18, 43, FOOD_COLOR );
     518:	lw	a2,-64(s0)
     51c:	li	a1,43
     520:	li	a0,18
     524:	jal	ra,17a4 <draw_dot>
	draw_dot( 19, 17, FOOD_COLOR );
     528:	lw	a2,-64(s0)
     52c:	li	a1,17
     530:	li	a0,19
     534:	jal	ra,17a4 <draw_dot>
	draw_dot( 23, 26, FOOD_COLOR );
     538:	lw	a2,-64(s0)
     53c:	li	a1,26
     540:	li	a0,23
     544:	jal	ra,17a4 <draw_dot>
	draw_dot( 23, 27, FOOD_COLOR );
     548:	lw	a2,-64(s0)
     54c:	li	a1,27
     550:	li	a0,23
     554:	jal	ra,17a4 <draw_dot>
	draw_dot( 24, 26, FOOD_COLOR );
     558:	lw	a2,-64(s0)
     55c:	li	a1,26
     560:	li	a0,24
     564:	jal	ra,17a4 <draw_dot>
	draw_dot( 24, 27, FOOD_COLOR );
     568:	lw	a2,-64(s0)
     56c:	li	a1,27
     570:	li	a0,24
     574:	jal	ra,17a4 <draw_dot>
	draw_dot( 30, 40, FOOD_COLOR );
     578:	lw	a2,-64(s0)
     57c:	li	a1,40
     580:	li	a0,30
     584:	jal	ra,17a4 <draw_dot>
	draw_dot( 30, 15, FOOD_COLOR );
     588:	lw	a2,-64(s0)
     58c:	li	a1,15
     590:	li	a0,30
     594:	jal	ra,17a4 <draw_dot>
	draw_dot( 30, 16, FOOD_COLOR );
     598:	lw	a2,-64(s0)
     59c:	li	a1,16
     5a0:	li	a0,30
     5a4:	jal	ra,17a4 <draw_dot>
	draw_dot( 31, 15, FOOD_COLOR );
     5a8:	lw	a2,-64(s0)
     5ac:	li	a1,15
     5b0:	li	a0,31
     5b4:	jal	ra,17a4 <draw_dot>
	draw_dot( 31, 16, FOOD_COLOR );
     5b8:	lw	a2,-64(s0)
     5bc:	li	a1,16
     5c0:	li	a0,31
     5c4:	jal	ra,17a4 <draw_dot>
	draw_dot( 35, 23, FOOD_COLOR );
     5c8:	lw	a2,-64(s0)
     5cc:	li	a1,23
     5d0:	li	a0,35
     5d4:	jal	ra,17a4 <draw_dot>
	draw_dot( 38, 45, FOOD_COLOR );
     5d8:	lw	a2,-64(s0)
     5dc:	li	a1,45
     5e0:	li	a0,38
     5e4:	jal	ra,17a4 <draw_dot>
	draw_dot( 39, 45, FOOD_COLOR );
     5e8:	lw	a2,-64(s0)
     5ec:	li	a1,45
     5f0:	li	a0,39
     5f4:	jal	ra,17a4 <draw_dot>
	
	while (1) {
		
		/********** Draw dot **********/
		draw_dot( XCOR, YCOR, COLOR );
     5f8:	lw	a2,-56(s0)
     5fc:	lw	a1,-24(s0)
     600:	lw	a0,-20(s0)
     604:	jal	ra,17a4 <draw_dot>

		/********** Fill in previous dot location with background color **********/
		draw_dot( old_XCOR, old_YCOR, BG_COLOR );
     608:	li	a5,23
     60c:	mv	a2,a5
     610:	lw	a1,-32(s0)
     614:	lw	a0,-28(s0)
     618:	jal	ra,17a4 <draw_dot>

		/********** For loop to slow down the frame rate, and to ready button inputs  **********/
		MAX_COUNT = (*SWITCHES)*10000;
     61c:	lui	a5,0x11000
     620:	lw	a4,0(a5) # 11000000 <__sp+0x10ff0000>
     624:	mv	a5,a4
     628:	slli	a5,a5,0x2
     62c:	add	a5,a5,a4
     630:	slli	a5,a5,0x3
     634:	sub	a5,a5,a4
     638:	slli	a5,a5,0x4
     63c:	add	a5,a5,a4
     640:	slli	a5,a5,0x4
     644:	sw	a5,-68(s0)
		FLAG = 0;
     648:	sw	zero,-44(s0)
		buttons = 0;
     64c:	sw	zero,-48(s0)
		for ( int TIMER = 0; TIMER < MAX_COUNT; TIMER++ ) {
     650:	sw	zero,-52(s0)
     654:	j	688 <main+0x550>
			if ( FLAG == 0 ) {
     658:	lw	a5,-44(s0)
     65c:	bnez	a5,67c <main+0x544>
				buttons = *BUTTONS;
     660:	lui	a5,0x11180
     664:	lw	a5,0(a5) # 11180000 <__sp+0x11170000>
     668:	sw	a5,-48(s0)
				if ( buttons > 0 ) {
     66c:	lw	a5,-48(s0)
     670:	blez	a5,67c <main+0x544>
					FLAG = 1;
     674:	li	a5,1
     678:	sw	a5,-44(s0)
		for ( int TIMER = 0; TIMER < MAX_COUNT; TIMER++ ) {
     67c:	lw	a5,-52(s0)
     680:	addi	a5,a5,1
     684:	sw	a5,-52(s0)
     688:	lw	a4,-52(s0)
     68c:	lw	a5,-68(s0)
     690:	blt	a4,a5,658 <main+0x520>
			}
		}


		/********** Adjust X and Y directions based on button inputs **********/
		if ( buttons == 1 ) {
     694:	lw	a4,-48(s0)
     698:	li	a5,1
     69c:	bne	a4,a5,6ac <main+0x574>
			XDIR = -1;
     6a0:	li	a5,-1
     6a4:	sw	a5,-36(s0)
			YDIR = 0;
     6a8:	sw	zero,-40(s0)
		}
		if (buttons == 5 ) {
     6ac:	lw	a4,-48(s0)
     6b0:	li	a5,5
     6b4:	bne	a4,a5,6c8 <main+0x590>
			XDIR = -1;
     6b8:	li	a5,-1
     6bc:	sw	a5,-36(s0)
			YDIR = -1;
     6c0:	li	a5,-1
     6c4:	sw	a5,-40(s0)
		}
		if (buttons == 4 ) {
     6c8:	lw	a4,-48(s0)
     6cc:	li	a5,4
     6d0:	bne	a4,a5,6e0 <main+0x5a8>
			XDIR = 0;
     6d4:	sw	zero,-36(s0)
			YDIR = -1;
     6d8:	li	a5,-1
     6dc:	sw	a5,-40(s0)
		}
		if (buttons == 6 ) {
     6e0:	lw	a4,-48(s0)
     6e4:	li	a5,6
     6e8:	bne	a4,a5,6fc <main+0x5c4>
			XDIR = 1;
     6ec:	li	a5,1
     6f0:	sw	a5,-36(s0)
			YDIR = -1;
     6f4:	li	a5,-1
     6f8:	sw	a5,-40(s0)
		}
		if (buttons == 2 ) {
     6fc:	lw	a4,-48(s0)
     700:	li	a5,2
     704:	bne	a4,a5,714 <main+0x5dc>
			XDIR = 1;
     708:	li	a5,1
     70c:	sw	a5,-36(s0)
			YDIR = 0;
     710:	sw	zero,-40(s0)
		}
		if (buttons == 10 ) {
     714:	lw	a4,-48(s0)
     718:	li	a5,10
     71c:	bne	a4,a5,730 <main+0x5f8>
			XDIR = 1;
     720:	li	a5,1
     724:	sw	a5,-36(s0)
			YDIR = 1;
     728:	li	a5,1
     72c:	sw	a5,-40(s0)
		}
		if (buttons == 8 ) {
     730:	lw	a4,-48(s0)
     734:	li	a5,8
     738:	bne	a4,a5,748 <main+0x610>
			XDIR = 0;
     73c:	sw	zero,-36(s0)
			YDIR = 1;
     740:	li	a5,1
     744:	sw	a5,-40(s0)
		}
		if (buttons == 9 ) {
     748:	lw	a4,-48(s0)
     74c:	li	a5,9
     750:	bne	a4,a5,764 <main+0x62c>
			XDIR = -1;
     754:	li	a5,-1
     758:	sw	a5,-36(s0)
			YDIR = 1;
     75c:	li	a5,1
     760:	sw	a5,-40(s0)
		}

		/********** Adjust X and Y direction if the dot is about to cross the boundaries at the edges of the screen **********/
		if ( XCOR >= 79 ) {
     764:	lw	a4,-20(s0)
     768:	li	a5,78
     76c:	bge	a5,a4,778 <main+0x640>
			XDIR = -1;
     770:	li	a5,-1
     774:	sw	a5,-36(s0)
		}

		if ( XCOR <= 0 ) {
     778:	lw	a5,-20(s0)
     77c:	bgtz	a5,788 <main+0x650>
			XDIR = 1;
     780:	li	a5,1
     784:	sw	a5,-36(s0)
		}

		if ( YCOR >= 59 ) {
     788:	lw	a4,-24(s0)
     78c:	li	a5,58
     790:	bge	a5,a4,79c <main+0x664>
			YDIR = -1;
     794:	li	a5,-1
     798:	sw	a5,-40(s0)
		}

		if ( YCOR <= 0 ) {
     79c:	lw	a5,-24(s0)
     7a0:	bgtz	a5,7ac <main+0x674>
			YDIR = 1;
     7a4:	li	a5,1
     7a8:	sw	a5,-40(s0)
		/******************************************************************************************/
		/******************************************************************************************/


		// left-most wall
		if ( (XCOR == 9) && (YCOR >= 10) && (YCOR <= 49) && (XDIR == 1) ) {
     7ac:	lw	a4,-20(s0)
     7b0:	li	a5,9
     7b4:	bne	a4,a5,7e4 <main+0x6ac>
     7b8:	lw	a4,-24(s0)
     7bc:	li	a5,9
     7c0:	bge	a5,a4,7e4 <main+0x6ac>
     7c4:	lw	a4,-24(s0)
     7c8:	li	a5,49
     7cc:	blt	a5,a4,7e4 <main+0x6ac>
     7d0:	lw	a4,-36(s0)
     7d4:	li	a5,1
     7d8:	bne	a4,a5,7e4 <main+0x6ac>
			XDIR = -1;
     7dc:	li	a5,-1
     7e0:	sw	a5,-36(s0)
		}
		if ( (XCOR == 11) && (YCOR >= 10) && (YCOR <= 49) && (XDIR == -1) ) {
     7e4:	lw	a4,-20(s0)
     7e8:	li	a5,11
     7ec:	bne	a4,a5,81c <main+0x6e4>
     7f0:	lw	a4,-24(s0)
     7f4:	li	a5,9
     7f8:	bge	a5,a4,81c <main+0x6e4>
     7fc:	lw	a4,-24(s0)
     800:	li	a5,49
     804:	blt	a5,a4,81c <main+0x6e4>
     808:	lw	a4,-36(s0)
     80c:	li	a5,-1
     810:	bne	a4,a5,81c <main+0x6e4>
			XDIR = 1;
     814:	li	a5,1
     818:	sw	a5,-36(s0)
		}
		if ( (XCOR == 10) && (YCOR == 9) && (YDIR == 1) ) {
     81c:	lw	a4,-20(s0)
     820:	li	a5,10
     824:	bne	a4,a5,848 <main+0x710>
     828:	lw	a4,-24(s0)
     82c:	li	a5,9
     830:	bne	a4,a5,848 <main+0x710>
     834:	lw	a4,-40(s0)
     838:	li	a5,1
     83c:	bne	a4,a5,848 <main+0x710>
			YDIR = -1;
     840:	li	a5,-1
     844:	sw	a5,-40(s0)
		}
		if ( (XCOR == 10) && (YCOR == 50) && (YDIR == -1) ) {
     848:	lw	a4,-20(s0)
     84c:	li	a5,10
     850:	bne	a4,a5,874 <main+0x73c>
     854:	lw	a4,-24(s0)
     858:	li	a5,50
     85c:	bne	a4,a5,874 <main+0x73c>
     860:	lw	a4,-40(s0)
     864:	li	a5,-1
     868:	bne	a4,a5,874 <main+0x73c>
			YDIR = 1;
     86c:	li	a5,1
     870:	sw	a5,-40(s0)
		}
		if ( (XCOR == 9) && (YCOR == 9) && (XDIR == 1) && (YDIR == 1) ) {
     874:	lw	a4,-20(s0)
     878:	li	a5,9
     87c:	bne	a4,a5,8b4 <main+0x77c>
     880:	lw	a4,-24(s0)
     884:	li	a5,9
     888:	bne	a4,a5,8b4 <main+0x77c>
     88c:	lw	a4,-36(s0)
     890:	li	a5,1
     894:	bne	a4,a5,8b4 <main+0x77c>
     898:	lw	a4,-40(s0)
     89c:	li	a5,1
     8a0:	bne	a4,a5,8b4 <main+0x77c>
			XDIR = -1;
     8a4:	li	a5,-1
     8a8:	sw	a5,-36(s0)
			YDIR = -1;
     8ac:	li	a5,-1
     8b0:	sw	a5,-40(s0)
		}
		if ( (XCOR == 11) && (YCOR == 9) && (XDIR == -1) && (YDIR == 1) ) {
     8b4:	lw	a4,-20(s0)
     8b8:	li	a5,11
     8bc:	bne	a4,a5,8f4 <main+0x7bc>
     8c0:	lw	a4,-24(s0)
     8c4:	li	a5,9
     8c8:	bne	a4,a5,8f4 <main+0x7bc>
     8cc:	lw	a4,-36(s0)
     8d0:	li	a5,-1
     8d4:	bne	a4,a5,8f4 <main+0x7bc>
     8d8:	lw	a4,-40(s0)
     8dc:	li	a5,1
     8e0:	bne	a4,a5,8f4 <main+0x7bc>
			XDIR = 1;
     8e4:	li	a5,1
     8e8:	sw	a5,-36(s0)
			YDIR = -1;
     8ec:	li	a5,-1
     8f0:	sw	a5,-40(s0)
		}
		if ( (XCOR == 9) && (YCOR == 50) && (XDIR == 1) && (YDIR == -1) ) {
     8f4:	lw	a4,-20(s0)
     8f8:	li	a5,9
     8fc:	bne	a4,a5,934 <main+0x7fc>
     900:	lw	a4,-24(s0)
     904:	li	a5,50
     908:	bne	a4,a5,934 <main+0x7fc>
     90c:	lw	a4,-36(s0)
     910:	li	a5,1
     914:	bne	a4,a5,934 <main+0x7fc>
     918:	lw	a4,-40(s0)
     91c:	li	a5,-1
     920:	bne	a4,a5,934 <main+0x7fc>
			XDIR = -1;
     924:	li	a5,-1
     928:	sw	a5,-36(s0)
			YDIR = 1;
     92c:	li	a5,1
     930:	sw	a5,-40(s0)
		}
		if ( (XCOR == 11) && (YCOR == 50) && (XDIR == -1) && (YDIR == -1) ) {
     934:	lw	a4,-20(s0)
     938:	li	a5,11
     93c:	bne	a4,a5,974 <main+0x83c>
     940:	lw	a4,-24(s0)
     944:	li	a5,50
     948:	bne	a4,a5,974 <main+0x83c>
     94c:	lw	a4,-36(s0)
     950:	li	a5,-1
     954:	bne	a4,a5,974 <main+0x83c>
     958:	lw	a4,-40(s0)
     95c:	li	a5,-1
     960:	bne	a4,a5,974 <main+0x83c>
			XDIR = 1;
     964:	li	a5,1
     968:	sw	a5,-36(s0)
			YDIR = 1;
     96c:	li	a5,1
     970:	sw	a5,-40(s0)
		}

		// right-most wall
		if ( (XCOR == 67) && (YCOR >= 10) && (YCOR <= 49) && (XDIR == 1) ) {
     974:	lw	a4,-20(s0)
     978:	li	a5,67
     97c:	bne	a4,a5,9ac <main+0x874>
     980:	lw	a4,-24(s0)
     984:	li	a5,9
     988:	bge	a5,a4,9ac <main+0x874>
     98c:	lw	a4,-24(s0)
     990:	li	a5,49
     994:	blt	a5,a4,9ac <main+0x874>
     998:	lw	a4,-36(s0)
     99c:	li	a5,1
     9a0:	bne	a4,a5,9ac <main+0x874>
			XDIR = -1;
     9a4:	li	a5,-1
     9a8:	sw	a5,-36(s0)
		}
		if ( (XCOR == 69) && (YCOR >= 10) && (YCOR <= 49) && (XDIR == -1) ) {
     9ac:	lw	a4,-20(s0)
     9b0:	li	a5,69
     9b4:	bne	a4,a5,9e4 <main+0x8ac>
     9b8:	lw	a4,-24(s0)
     9bc:	li	a5,9
     9c0:	bge	a5,a4,9e4 <main+0x8ac>
     9c4:	lw	a4,-24(s0)
     9c8:	li	a5,49
     9cc:	blt	a5,a4,9e4 <main+0x8ac>
     9d0:	lw	a4,-36(s0)
     9d4:	li	a5,-1
     9d8:	bne	a4,a5,9e4 <main+0x8ac>
			XDIR = 1;
     9dc:	li	a5,1
     9e0:	sw	a5,-36(s0)
		}
		if ( (XCOR == 68) && (YCOR == 9) && (YDIR == 1) ) {
     9e4:	lw	a4,-20(s0)
     9e8:	li	a5,68
     9ec:	bne	a4,a5,a10 <main+0x8d8>
     9f0:	lw	a4,-24(s0)
     9f4:	li	a5,9
     9f8:	bne	a4,a5,a10 <main+0x8d8>
     9fc:	lw	a4,-40(s0)
     a00:	li	a5,1
     a04:	bne	a4,a5,a10 <main+0x8d8>
			YDIR = -1;
     a08:	li	a5,-1
     a0c:	sw	a5,-40(s0)
		}
		if ( (XCOR == 68) && (YCOR == 50) && (YDIR == -1) ) {
     a10:	lw	a4,-20(s0)
     a14:	li	a5,68
     a18:	bne	a4,a5,a3c <main+0x904>
     a1c:	lw	a4,-24(s0)
     a20:	li	a5,50
     a24:	bne	a4,a5,a3c <main+0x904>
     a28:	lw	a4,-40(s0)
     a2c:	li	a5,-1
     a30:	bne	a4,a5,a3c <main+0x904>
			YDIR = 1;
     a34:	li	a5,1
     a38:	sw	a5,-40(s0)
		}
		if ( (XCOR == 67) && (YCOR == 9) && (XDIR == 1) && (YDIR == 1) ) {
     a3c:	lw	a4,-20(s0)
     a40:	li	a5,67
     a44:	bne	a4,a5,a7c <main+0x944>
     a48:	lw	a4,-24(s0)
     a4c:	li	a5,9
     a50:	bne	a4,a5,a7c <main+0x944>
     a54:	lw	a4,-36(s0)
     a58:	li	a5,1
     a5c:	bne	a4,a5,a7c <main+0x944>
     a60:	lw	a4,-40(s0)
     a64:	li	a5,1
     a68:	bne	a4,a5,a7c <main+0x944>
			XDIR = -1;
     a6c:	li	a5,-1
     a70:	sw	a5,-36(s0)
			YDIR = -1;
     a74:	li	a5,-1
     a78:	sw	a5,-40(s0)
		}
		if ( (XCOR == 69) && (YCOR == 9) && (XDIR == -1) && (YDIR == 1) ) {
     a7c:	lw	a4,-20(s0)
     a80:	li	a5,69
     a84:	bne	a4,a5,abc <main+0x984>
     a88:	lw	a4,-24(s0)
     a8c:	li	a5,9
     a90:	bne	a4,a5,abc <main+0x984>
     a94:	lw	a4,-36(s0)
     a98:	li	a5,-1
     a9c:	bne	a4,a5,abc <main+0x984>
     aa0:	lw	a4,-40(s0)
     aa4:	li	a5,1
     aa8:	bne	a4,a5,abc <main+0x984>
			XDIR = 1;
     aac:	li	a5,1
     ab0:	sw	a5,-36(s0)
			YDIR = -1;
     ab4:	li	a5,-1
     ab8:	sw	a5,-40(s0)
		}
		if ( (XCOR == 67) && (YCOR == 50) && (XDIR == 1) && (YDIR == -1) ) {
     abc:	lw	a4,-20(s0)
     ac0:	li	a5,67
     ac4:	bne	a4,a5,afc <main+0x9c4>
     ac8:	lw	a4,-24(s0)
     acc:	li	a5,50
     ad0:	bne	a4,a5,afc <main+0x9c4>
     ad4:	lw	a4,-36(s0)
     ad8:	li	a5,1
     adc:	bne	a4,a5,afc <main+0x9c4>
     ae0:	lw	a4,-40(s0)
     ae4:	li	a5,-1
     ae8:	bne	a4,a5,afc <main+0x9c4>
			XDIR = -1;
     aec:	li	a5,-1
     af0:	sw	a5,-36(s0)
			YDIR = 1;
     af4:	li	a5,1
     af8:	sw	a5,-40(s0)
		}
		if ( (XCOR == 69) && (YCOR == 50) && (XDIR == -1) && (YDIR == -1) ) {
     afc:	lw	a4,-20(s0)
     b00:	li	a5,69
     b04:	bne	a4,a5,b3c <main+0xa04>
     b08:	lw	a4,-24(s0)
     b0c:	li	a5,50
     b10:	bne	a4,a5,b3c <main+0xa04>
     b14:	lw	a4,-36(s0)
     b18:	li	a5,-1
     b1c:	bne	a4,a5,b3c <main+0xa04>
     b20:	lw	a4,-40(s0)
     b24:	li	a5,-1
     b28:	bne	a4,a5,b3c <main+0xa04>
			XDIR = 1;
     b2c:	li	a5,1
     b30:	sw	a5,-36(s0)
			YDIR = 1;
     b34:	li	a5,1
     b38:	sw	a5,-40(s0)
		}

		// central cross
		if ( (XCOR == 38) && (YCOR >= 24) && (YCOR <= 35) && (XDIR == 1) ) {
     b3c:	lw	a4,-20(s0)
     b40:	li	a5,38
     b44:	bne	a4,a5,b74 <main+0xa3c>
     b48:	lw	a4,-24(s0)
     b4c:	li	a5,23
     b50:	bge	a5,a4,b74 <main+0xa3c>
     b54:	lw	a4,-24(s0)
     b58:	li	a5,35
     b5c:	blt	a5,a4,b74 <main+0xa3c>
     b60:	lw	a4,-36(s0)
     b64:	li	a5,1
     b68:	bne	a4,a5,b74 <main+0xa3c>
		    XDIR = -1;
     b6c:	li	a5,-1
     b70:	sw	a5,-36(s0)
		}
		if ( (XCOR == 41) && (YCOR >= 24) && (YCOR <= 35) && (XDIR == -1) ) {
     b74:	lw	a4,-20(s0)
     b78:	li	a5,41
     b7c:	bne	a4,a5,bac <main+0xa74>
     b80:	lw	a4,-24(s0)
     b84:	li	a5,23
     b88:	bge	a5,a4,bac <main+0xa74>
     b8c:	lw	a4,-24(s0)
     b90:	li	a5,35
     b94:	blt	a5,a4,bac <main+0xa74>
     b98:	lw	a4,-36(s0)
     b9c:	li	a5,-1
     ba0:	bne	a4,a5,bac <main+0xa74>
		    XDIR = 1;
     ba4:	li	a5,1
     ba8:	sw	a5,-36(s0)
		}
		if ( (XCOR >= 39) && (XCOR <= 40) && (YCOR == 23) && (YDIR == 1) ) {
     bac:	lw	a4,-20(s0)
     bb0:	li	a5,38
     bb4:	bge	a5,a4,be4 <main+0xaac>
     bb8:	lw	a4,-20(s0)
     bbc:	li	a5,40
     bc0:	blt	a5,a4,be4 <main+0xaac>
     bc4:	lw	a4,-24(s0)
     bc8:	li	a5,23
     bcc:	bne	a4,a5,be4 <main+0xaac>
     bd0:	lw	a4,-40(s0)
     bd4:	li	a5,1
     bd8:	bne	a4,a5,be4 <main+0xaac>
		    YDIR = -1;
     bdc:	li	a5,-1
     be0:	sw	a5,-40(s0)
		}
		if ( (XCOR >= 39) && (XCOR <= 40) && (YCOR == 36) && (YDIR == -1) ) {
     be4:	lw	a4,-20(s0)
     be8:	li	a5,38
     bec:	bge	a5,a4,c1c <main+0xae4>
     bf0:	lw	a4,-20(s0)
     bf4:	li	a5,40
     bf8:	blt	a5,a4,c1c <main+0xae4>
     bfc:	lw	a4,-24(s0)
     c00:	li	a5,36
     c04:	bne	a4,a5,c1c <main+0xae4>
     c08:	lw	a4,-40(s0)
     c0c:	li	a5,-1
     c10:	bne	a4,a5,c1c <main+0xae4>
		    YDIR = 1;
     c14:	li	a5,1
     c18:	sw	a5,-40(s0)
		}
		if ( (XCOR == 33) && (YCOR >= 29) && (YCOR <= 30) && (XDIR == 1) ) {
     c1c:	lw	a4,-20(s0)
     c20:	li	a5,33
     c24:	bne	a4,a5,c54 <main+0xb1c>
     c28:	lw	a4,-24(s0)
     c2c:	li	a5,28
     c30:	bge	a5,a4,c54 <main+0xb1c>
     c34:	lw	a4,-24(s0)
     c38:	li	a5,30
     c3c:	blt	a5,a4,c54 <main+0xb1c>
     c40:	lw	a4,-36(s0)
     c44:	li	a5,1
     c48:	bne	a4,a5,c54 <main+0xb1c>
		    XDIR = -1;
     c4c:	li	a5,-1
     c50:	sw	a5,-36(s0)
		}
		if ( (XCOR == 46) && (YCOR >= 29) && (YCOR <= 30) && (XDIR == -1) ) {
     c54:	lw	a4,-20(s0)
     c58:	li	a5,46
     c5c:	bne	a4,a5,c8c <main+0xb54>
     c60:	lw	a4,-24(s0)
     c64:	li	a5,28
     c68:	bge	a5,a4,c8c <main+0xb54>
     c6c:	lw	a4,-24(s0)
     c70:	li	a5,30
     c74:	blt	a5,a4,c8c <main+0xb54>
     c78:	lw	a4,-36(s0)
     c7c:	li	a5,-1
     c80:	bne	a4,a5,c8c <main+0xb54>
		    XDIR = 1;
     c84:	li	a5,1
     c88:	sw	a5,-36(s0)
		}
		if ( (XCOR >= 34) && (XCOR <= 45) && (YCOR == 28) && (YDIR == 1) ) {
     c8c:	lw	a4,-20(s0)
     c90:	li	a5,33
     c94:	bge	a5,a4,cc4 <main+0xb8c>
     c98:	lw	a4,-20(s0)
     c9c:	li	a5,45
     ca0:	blt	a5,a4,cc4 <main+0xb8c>
     ca4:	lw	a4,-24(s0)
     ca8:	li	a5,28
     cac:	bne	a4,a5,cc4 <main+0xb8c>
     cb0:	lw	a4,-40(s0)
     cb4:	li	a5,1
     cb8:	bne	a4,a5,cc4 <main+0xb8c>
		    YDIR = -1;
     cbc:	li	a5,-1
     cc0:	sw	a5,-40(s0)
		}
		if ( (XCOR >= 34) && (XCOR <= 45) && (YCOR == 31) && (YDIR == -1) ) {
     cc4:	lw	a4,-20(s0)
     cc8:	li	a5,33
     ccc:	bge	a5,a4,cfc <main+0xbc4>
     cd0:	lw	a4,-20(s0)
     cd4:	li	a5,45
     cd8:	blt	a5,a4,cfc <main+0xbc4>
     cdc:	lw	a4,-24(s0)
     ce0:	li	a5,31
     ce4:	bne	a4,a5,cfc <main+0xbc4>
     ce8:	lw	a4,-40(s0)
     cec:	li	a5,-1
     cf0:	bne	a4,a5,cfc <main+0xbc4>
		    YDIR = 1;
     cf4:	li	a5,1
     cf8:	sw	a5,-40(s0)
		}



		if ( (XCOR == 33) && (YCOR == 28) && (XDIR == 1) && (YDIR == 1) ) {
     cfc:	lw	a4,-20(s0)
     d00:	li	a5,33
     d04:	bne	a4,a5,d3c <main+0xc04>
     d08:	lw	a4,-24(s0)
     d0c:	li	a5,28
     d10:	bne	a4,a5,d3c <main+0xc04>
     d14:	lw	a4,-36(s0)
     d18:	li	a5,1
     d1c:	bne	a4,a5,d3c <main+0xc04>
     d20:	lw	a4,-40(s0)
     d24:	li	a5,1
     d28:	bne	a4,a5,d3c <main+0xc04>
		    XDIR = -1;
     d2c:	li	a5,-1
     d30:	sw	a5,-36(s0)
		    YDIR = -1;
     d34:	li	a5,-1
     d38:	sw	a5,-40(s0)
		}
		if ( (XCOR == 33) && (YCOR == 31) && (XDIR == 1) && (YDIR == -1) ) {
     d3c:	lw	a4,-20(s0)
     d40:	li	a5,33
     d44:	bne	a4,a5,d7c <main+0xc44>
     d48:	lw	a4,-24(s0)
     d4c:	li	a5,31
     d50:	bne	a4,a5,d7c <main+0xc44>
     d54:	lw	a4,-36(s0)
     d58:	li	a5,1
     d5c:	bne	a4,a5,d7c <main+0xc44>
     d60:	lw	a4,-40(s0)
     d64:	li	a5,-1
     d68:	bne	a4,a5,d7c <main+0xc44>
		    XDIR = -1;
     d6c:	li	a5,-1
     d70:	sw	a5,-36(s0)
		    YDIR = 1;
     d74:	li	a5,1
     d78:	sw	a5,-40(s0)
		}
		if ( (XCOR == 38) && (YCOR == 23) && (XDIR == 1) && (YDIR == 1) ) {
     d7c:	lw	a4,-20(s0)
     d80:	li	a5,38
     d84:	bne	a4,a5,dbc <main+0xc84>
     d88:	lw	a4,-24(s0)
     d8c:	li	a5,23
     d90:	bne	a4,a5,dbc <main+0xc84>
     d94:	lw	a4,-36(s0)
     d98:	li	a5,1
     d9c:	bne	a4,a5,dbc <main+0xc84>
     da0:	lw	a4,-40(s0)
     da4:	li	a5,1
     da8:	bne	a4,a5,dbc <main+0xc84>
		    XDIR = -1;
     dac:	li	a5,-1
     db0:	sw	a5,-36(s0)
		    YDIR = -1;
     db4:	li	a5,-1
     db8:	sw	a5,-40(s0)
		}
		if ( (XCOR == 38) && (YCOR == 36) && (XDIR == 1) && (YDIR == -1) ) {
     dbc:	lw	a4,-20(s0)
     dc0:	li	a5,38
     dc4:	bne	a4,a5,dfc <main+0xcc4>
     dc8:	lw	a4,-24(s0)
     dcc:	li	a5,36
     dd0:	bne	a4,a5,dfc <main+0xcc4>
     dd4:	lw	a4,-36(s0)
     dd8:	li	a5,1
     ddc:	bne	a4,a5,dfc <main+0xcc4>
     de0:	lw	a4,-40(s0)
     de4:	li	a5,-1
     de8:	bne	a4,a5,dfc <main+0xcc4>
		    XDIR = -1;
     dec:	li	a5,-1
     df0:	sw	a5,-36(s0)
		    YDIR = 1;
     df4:	li	a5,1
     df8:	sw	a5,-40(s0)
		}
		if ( (XCOR == 41) && (YCOR == 23) && (XDIR == -1) && (YDIR == 1) ) {
     dfc:	lw	a4,-20(s0)
     e00:	li	a5,41
     e04:	bne	a4,a5,e3c <main+0xd04>
     e08:	lw	a4,-24(s0)
     e0c:	li	a5,23
     e10:	bne	a4,a5,e3c <main+0xd04>
     e14:	lw	a4,-36(s0)
     e18:	li	a5,-1
     e1c:	bne	a4,a5,e3c <main+0xd04>
     e20:	lw	a4,-40(s0)
     e24:	li	a5,1
     e28:	bne	a4,a5,e3c <main+0xd04>
		    XDIR = 1;
     e2c:	li	a5,1
     e30:	sw	a5,-36(s0)
		    YDIR = -1;
     e34:	li	a5,-1
     e38:	sw	a5,-40(s0)
		}
		if ( (XCOR == 41) && (YCOR == 36) && (XDIR == -1) && (YDIR == -1) ) {
     e3c:	lw	a4,-20(s0)
     e40:	li	a5,41
     e44:	bne	a4,a5,e7c <main+0xd44>
     e48:	lw	a4,-24(s0)
     e4c:	li	a5,36
     e50:	bne	a4,a5,e7c <main+0xd44>
     e54:	lw	a4,-36(s0)
     e58:	li	a5,-1
     e5c:	bne	a4,a5,e7c <main+0xd44>
     e60:	lw	a4,-40(s0)
     e64:	li	a5,-1
     e68:	bne	a4,a5,e7c <main+0xd44>
		    XDIR = 1;
     e6c:	li	a5,1
     e70:	sw	a5,-36(s0)
		    YDIR = 1;
     e74:	li	a5,1
     e78:	sw	a5,-40(s0)
		}
		if ( (XCOR == 46) && (YCOR == 28) && (XDIR == -1) && (YDIR == 1) ) {
     e7c:	lw	a4,-20(s0)
     e80:	li	a5,46
     e84:	bne	a4,a5,ebc <main+0xd84>
     e88:	lw	a4,-24(s0)
     e8c:	li	a5,28
     e90:	bne	a4,a5,ebc <main+0xd84>
     e94:	lw	a4,-36(s0)
     e98:	li	a5,-1
     e9c:	bne	a4,a5,ebc <main+0xd84>
     ea0:	lw	a4,-40(s0)
     ea4:	li	a5,1
     ea8:	bne	a4,a5,ebc <main+0xd84>
		    XDIR = 1;
     eac:	li	a5,1
     eb0:	sw	a5,-36(s0)
		    YDIR = -1;
     eb4:	li	a5,-1
     eb8:	sw	a5,-40(s0)
		}
		if ( (XCOR == 46) && (YCOR == 31) && (XDIR == -1) && (YDIR == -1) ) {
     ebc:	lw	a4,-20(s0)
     ec0:	li	a5,46
     ec4:	bne	a4,a5,efc <main+0xdc4>
     ec8:	lw	a4,-24(s0)
     ecc:	li	a5,31
     ed0:	bne	a4,a5,efc <main+0xdc4>
     ed4:	lw	a4,-36(s0)
     ed8:	li	a5,-1
     edc:	bne	a4,a5,efc <main+0xdc4>
     ee0:	lw	a4,-40(s0)
     ee4:	li	a5,-1
     ee8:	bne	a4,a5,efc <main+0xdc4>
		    XDIR = 1;
     eec:	li	a5,1
     ef0:	sw	a5,-36(s0)
		    YDIR = 1;
     ef4:	li	a5,1
     ef8:	sw	a5,-40(s0)
		}

		// upper and lower walls
	        if ( (XCOR == 18) && (YCOR == 48) && (XDIR == 1) && (YDIR == 1) ) {
     efc:	lw	a4,-20(s0)
     f00:	li	a5,18
     f04:	bne	a4,a5,f3c <main+0xe04>
     f08:	lw	a4,-24(s0)
     f0c:	li	a5,48
     f10:	bne	a4,a5,f3c <main+0xe04>
     f14:	lw	a4,-36(s0)
     f18:	li	a5,1
     f1c:	bne	a4,a5,f3c <main+0xe04>
     f20:	lw	a4,-40(s0)
     f24:	li	a5,1
     f28:	bne	a4,a5,f3c <main+0xe04>
	            XDIR = -1;
     f2c:	li	a5,-1
     f30:	sw	a5,-36(s0)
	            YDIR = -1;
     f34:	li	a5,-1
     f38:	sw	a5,-40(s0)
	        }
	        if ( (XCOR == 18) && (YCOR == 50) && (XDIR == 1) && (YDIR == -1) ) {
     f3c:	lw	a4,-20(s0)
     f40:	li	a5,18
     f44:	bne	a4,a5,f7c <main+0xe44>
     f48:	lw	a4,-24(s0)
     f4c:	li	a5,50
     f50:	bne	a4,a5,f7c <main+0xe44>
     f54:	lw	a4,-36(s0)
     f58:	li	a5,1
     f5c:	bne	a4,a5,f7c <main+0xe44>
     f60:	lw	a4,-40(s0)
     f64:	li	a5,-1
     f68:	bne	a4,a5,f7c <main+0xe44>
	            XDIR = -1;
     f6c:	li	a5,-1
     f70:	sw	a5,-36(s0)
	            YDIR = 1;
     f74:	li	a5,1
     f78:	sw	a5,-40(s0)
	        }
	        if ( (XCOR == 18) && (YCOR == 9) && (XDIR == 1) && (YDIR == 1) ) {
     f7c:	lw	a4,-20(s0)
     f80:	li	a5,18
     f84:	bne	a4,a5,fbc <main+0xe84>
     f88:	lw	a4,-24(s0)
     f8c:	li	a5,9
     f90:	bne	a4,a5,fbc <main+0xe84>
     f94:	lw	a4,-36(s0)
     f98:	li	a5,1
     f9c:	bne	a4,a5,fbc <main+0xe84>
     fa0:	lw	a4,-40(s0)
     fa4:	li	a5,1
     fa8:	bne	a4,a5,fbc <main+0xe84>
	            XDIR = -1;
     fac:	li	a5,-1
     fb0:	sw	a5,-36(s0)
	            YDIR = -1;
     fb4:	li	a5,-1
     fb8:	sw	a5,-40(s0)
	        }
	        if ( (XCOR == 18) && (YCOR == 11) && (XDIR == 1) && (YDIR == -1) ) {
     fbc:	lw	a4,-20(s0)
     fc0:	li	a5,18
     fc4:	bne	a4,a5,ffc <main+0xec4>
     fc8:	lw	a4,-24(s0)
     fcc:	li	a5,11
     fd0:	bne	a4,a5,ffc <main+0xec4>
     fd4:	lw	a4,-36(s0)
     fd8:	li	a5,1
     fdc:	bne	a4,a5,ffc <main+0xec4>
     fe0:	lw	a4,-40(s0)
     fe4:	li	a5,-1
     fe8:	bne	a4,a5,ffc <main+0xec4>
	            XDIR = -1;
     fec:	li	a5,-1
     ff0:	sw	a5,-36(s0)
	            YDIR = 1;
     ff4:	li	a5,1
     ff8:	sw	a5,-40(s0)
	        }
	        if ( (XCOR == 35) && (YCOR == 11) && (XDIR == -1) && (YDIR == -1) ) {
     ffc:	lw	a4,-20(s0)
    1000:	li	a5,35
    1004:	bne	a4,a5,103c <main+0xf04>
    1008:	lw	a4,-24(s0)
    100c:	li	a5,11
    1010:	bne	a4,a5,103c <main+0xf04>
    1014:	lw	a4,-36(s0)
    1018:	li	a5,-1
    101c:	bne	a4,a5,103c <main+0xf04>
    1020:	lw	a4,-40(s0)
    1024:	li	a5,-1
    1028:	bne	a4,a5,103c <main+0xf04>
	            XDIR = 1;
    102c:	li	a5,1
    1030:	sw	a5,-36(s0)
	            YDIR = 1;
    1034:	li	a5,1
    1038:	sw	a5,-40(s0)
	        }
	        if ( (XCOR == 35) && (YCOR == 48) && (XDIR == -1) && (YDIR == 1) ) {
    103c:	lw	a4,-20(s0)
    1040:	li	a5,35
    1044:	bne	a4,a5,107c <main+0xf44>
    1048:	lw	a4,-24(s0)
    104c:	li	a5,48
    1050:	bne	a4,a5,107c <main+0xf44>
    1054:	lw	a4,-36(s0)
    1058:	li	a5,-1
    105c:	bne	a4,a5,107c <main+0xf44>
    1060:	lw	a4,-40(s0)
    1064:	li	a5,1
    1068:	bne	a4,a5,107c <main+0xf44>
	            XDIR = 1;
    106c:	li	a5,1
    1070:	sw	a5,-36(s0)
	            YDIR = -1;
    1074:	li	a5,-1
    1078:	sw	a5,-40(s0)
	        }
        
        
	        if ( (XCOR == 44) && (YCOR == 11) && (XDIR == 1) && (YDIR == -1) ) {
    107c:	lw	a4,-20(s0)
    1080:	li	a5,44
    1084:	bne	a4,a5,10bc <main+0xf84>
    1088:	lw	a4,-24(s0)
    108c:	li	a5,11
    1090:	bne	a4,a5,10bc <main+0xf84>
    1094:	lw	a4,-36(s0)
    1098:	li	a5,1
    109c:	bne	a4,a5,10bc <main+0xf84>
    10a0:	lw	a4,-40(s0)
    10a4:	li	a5,-1
    10a8:	bne	a4,a5,10bc <main+0xf84>
	            XDIR = -1;
    10ac:	li	a5,-1
    10b0:	sw	a5,-36(s0)
	            YDIR = 1;
    10b4:	li	a5,1
    10b8:	sw	a5,-40(s0)
	        }
	        if ( (XCOR == 44) && (YCOR == 48) && (XDIR == 1) && (YDIR == 1) ) {
    10bc:	lw	a4,-20(s0)
    10c0:	li	a5,44
    10c4:	bne	a4,a5,10fc <main+0xfc4>
    10c8:	lw	a4,-24(s0)
    10cc:	li	a5,48
    10d0:	bne	a4,a5,10fc <main+0xfc4>
    10d4:	lw	a4,-36(s0)
    10d8:	li	a5,1
    10dc:	bne	a4,a5,10fc <main+0xfc4>
    10e0:	lw	a4,-40(s0)
    10e4:	li	a5,1
    10e8:	bne	a4,a5,10fc <main+0xfc4>
	            XDIR = -1;
    10ec:	li	a5,-1
    10f0:	sw	a5,-36(s0)
	            YDIR = -1;
    10f4:	li	a5,-1
    10f8:	sw	a5,-40(s0)
	        }
	        if ( (XCOR == 60) && (YCOR == 9) && (XDIR == -1) && (YDIR == 1) ) {
    10fc:	lw	a4,-20(s0)
    1100:	li	a5,60
    1104:	bne	a4,a5,113c <main+0x1004>
    1108:	lw	a4,-24(s0)
    110c:	li	a5,9
    1110:	bne	a4,a5,113c <main+0x1004>
    1114:	lw	a4,-36(s0)
    1118:	li	a5,-1
    111c:	bne	a4,a5,113c <main+0x1004>
    1120:	lw	a4,-40(s0)
    1124:	li	a5,1
    1128:	bne	a4,a5,113c <main+0x1004>
	            XDIR = 1;
    112c:	li	a5,1
    1130:	sw	a5,-36(s0)
	            YDIR = -1;
    1134:	li	a5,-1
    1138:	sw	a5,-40(s0)
	        }
	        if ( (XCOR == 60) && (YCOR == 11) && (XDIR == -1) && (YDIR == -1) ) {
    113c:	lw	a4,-20(s0)
    1140:	li	a5,60
    1144:	bne	a4,a5,117c <main+0x1044>
    1148:	lw	a4,-24(s0)
    114c:	li	a5,11
    1150:	bne	a4,a5,117c <main+0x1044>
    1154:	lw	a4,-36(s0)
    1158:	li	a5,-1
    115c:	bne	a4,a5,117c <main+0x1044>
    1160:	lw	a4,-40(s0)
    1164:	li	a5,-1
    1168:	bne	a4,a5,117c <main+0x1044>
	            XDIR = 1;
    116c:	li	a5,1
    1170:	sw	a5,-36(s0)
	            YDIR = 1;
    1174:	li	a5,1
    1178:	sw	a5,-40(s0)
	        }
	        if ( (XCOR == 60) && (YCOR == 48) && (XDIR == -1) && (YDIR == 1) ) {
    117c:	lw	a4,-20(s0)
    1180:	li	a5,60
    1184:	bne	a4,a5,11bc <main+0x1084>
    1188:	lw	a4,-24(s0)
    118c:	li	a5,48
    1190:	bne	a4,a5,11bc <main+0x1084>
    1194:	lw	a4,-36(s0)
    1198:	li	a5,-1
    119c:	bne	a4,a5,11bc <main+0x1084>
    11a0:	lw	a4,-40(s0)
    11a4:	li	a5,1
    11a8:	bne	a4,a5,11bc <main+0x1084>
	            XDIR = 1;
    11ac:	li	a5,1
    11b0:	sw	a5,-36(s0)
	            YDIR = -1;
    11b4:	li	a5,-1
    11b8:	sw	a5,-40(s0)
	        }
	        if ( (XCOR == 60) && (YCOR == 50) && (XDIR == -1) && (YDIR == -1) ) {
    11bc:	lw	a4,-20(s0)
    11c0:	li	a5,60
    11c4:	bne	a4,a5,11fc <main+0x10c4>
    11c8:	lw	a4,-24(s0)
    11cc:	li	a5,50
    11d0:	bne	a4,a5,11fc <main+0x10c4>
    11d4:	lw	a4,-36(s0)
    11d8:	li	a5,-1
    11dc:	bne	a4,a5,11fc <main+0x10c4>
    11e0:	lw	a4,-40(s0)
    11e4:	li	a5,-1
    11e8:	bne	a4,a5,11fc <main+0x10c4>
	            XDIR = 1;
    11ec:	li	a5,1
    11f0:	sw	a5,-36(s0)
	            YDIR = 1;
    11f4:	li	a5,1
    11f8:	sw	a5,-40(s0)
	        }


                if ( (XCOR == 18) && (YCOR == 10) && (XDIR == 1) ) {
    11fc:	lw	a4,-20(s0)
    1200:	li	a5,18
    1204:	bne	a4,a5,1228 <main+0x10f0>
    1208:	lw	a4,-24(s0)
    120c:	li	a5,10
    1210:	bne	a4,a5,1228 <main+0x10f0>
    1214:	lw	a4,-36(s0)
    1218:	li	a5,1
    121c:	bne	a4,a5,1228 <main+0x10f0>
                    XDIR = -1;
    1220:	li	a5,-1
    1224:	sw	a5,-36(s0)
                }
                if ( (XCOR == 18) && (YCOR == 49) && (XDIR == 1) ) {
    1228:	lw	a4,-20(s0)
    122c:	li	a5,18
    1230:	bne	a4,a5,1254 <main+0x111c>
    1234:	lw	a4,-24(s0)
    1238:	li	a5,49
    123c:	bne	a4,a5,1254 <main+0x111c>
    1240:	lw	a4,-36(s0)
    1244:	li	a5,1
    1248:	bne	a4,a5,1254 <main+0x111c>
                    XDIR = -1;
    124c:	li	a5,-1
    1250:	sw	a5,-36(s0)
                }
                if ( (XCOR == 60) && (YCOR == 10) && (XDIR == -1) ) {
    1254:	lw	a4,-20(s0)
    1258:	li	a5,60
    125c:	bne	a4,a5,1280 <main+0x1148>
    1260:	lw	a4,-24(s0)
    1264:	li	a5,10
    1268:	bne	a4,a5,1280 <main+0x1148>
    126c:	lw	a4,-36(s0)
    1270:	li	a5,-1
    1274:	bne	a4,a5,1280 <main+0x1148>
                    XDIR = 1;
    1278:	li	a5,1
    127c:	sw	a5,-36(s0)
                }
                if ( (XCOR == 60) && (YCOR == 49) && (XDIR == -1) ) {
    1280:	lw	a4,-20(s0)
    1284:	li	a5,60
    1288:	bne	a4,a5,12ac <main+0x1174>
    128c:	lw	a4,-24(s0)
    1290:	li	a5,49
    1294:	bne	a4,a5,12ac <main+0x1174>
    1298:	lw	a4,-36(s0)
    129c:	li	a5,-1
    12a0:	bne	a4,a5,12ac <main+0x1174>
                    XDIR = 1;
    12a4:	li	a5,1
    12a8:	sw	a5,-36(s0)
                }
                if ( (XCOR == 33) && (YCOR >= 0) && (YCOR <= 9) && (XDIR == 1) ) {
    12ac:	lw	a4,-20(s0)
    12b0:	li	a5,33
    12b4:	bne	a4,a5,12e0 <main+0x11a8>
    12b8:	lw	a5,-24(s0)
    12bc:	bltz	a5,12e0 <main+0x11a8>
    12c0:	lw	a4,-24(s0)
    12c4:	li	a5,9
    12c8:	blt	a5,a4,12e0 <main+0x11a8>
    12cc:	lw	a4,-36(s0)
    12d0:	li	a5,1
    12d4:	bne	a4,a5,12e0 <main+0x11a8>
                    XDIR = -1;
    12d8:	li	a5,-1
    12dc:	sw	a5,-36(s0)
                }
                if ( (XCOR == 35) && (YCOR >= 0) && (YCOR <= 10) && (XDIR == -1) ) {
    12e0:	lw	a4,-20(s0)
    12e4:	li	a5,35
    12e8:	bne	a4,a5,1314 <main+0x11dc>
    12ec:	lw	a5,-24(s0)
    12f0:	bltz	a5,1314 <main+0x11dc>
    12f4:	lw	a4,-24(s0)
    12f8:	li	a5,10
    12fc:	blt	a5,a4,1314 <main+0x11dc>
    1300:	lw	a4,-36(s0)
    1304:	li	a5,-1
    1308:	bne	a4,a5,1314 <main+0x11dc>
                    XDIR = 1;
    130c:	li	a5,1
    1310:	sw	a5,-36(s0)
                }
                if ( (XCOR == 44) && (YCOR >= 0) && (YCOR <= 10) && (XDIR == 1) ) {
    1314:	lw	a4,-20(s0)
    1318:	li	a5,44
    131c:	bne	a4,a5,1348 <main+0x1210>
    1320:	lw	a5,-24(s0)
    1324:	bltz	a5,1348 <main+0x1210>
    1328:	lw	a4,-24(s0)
    132c:	li	a5,10
    1330:	blt	a5,a4,1348 <main+0x1210>
    1334:	lw	a4,-36(s0)
    1338:	li	a5,1
    133c:	bne	a4,a5,1348 <main+0x1210>
                    XDIR = -1;
    1340:	li	a5,-1
    1344:	sw	a5,-36(s0)
                }
                if ( (XCOR == 46) && (YCOR >= 0) && (YCOR <= 10) && (XDIR == -1) ) {
    1348:	lw	a4,-20(s0)
    134c:	li	a5,46
    1350:	bne	a4,a5,137c <main+0x1244>
    1354:	lw	a5,-24(s0)
    1358:	bltz	a5,137c <main+0x1244>
    135c:	lw	a4,-24(s0)
    1360:	li	a5,10
    1364:	blt	a5,a4,137c <main+0x1244>
    1368:	lw	a4,-36(s0)
    136c:	li	a5,-1
    1370:	bne	a4,a5,137c <main+0x1244>
                    XDIR = 1;
    1374:	li	a5,1
    1378:	sw	a5,-36(s0)
                }
                if ( (XCOR == 33) && (YCOR >= 49) && (YCOR <= 59) && (XDIR == 1) ) {
    137c:	lw	a4,-20(s0)
    1380:	li	a5,33
    1384:	bne	a4,a5,13b4 <main+0x127c>
    1388:	lw	a4,-24(s0)
    138c:	li	a5,48
    1390:	bge	a5,a4,13b4 <main+0x127c>
    1394:	lw	a4,-24(s0)
    1398:	li	a5,59
    139c:	blt	a5,a4,13b4 <main+0x127c>
    13a0:	lw	a4,-36(s0)
    13a4:	li	a5,1
    13a8:	bne	a4,a5,13b4 <main+0x127c>
                    XDIR = -1;
    13ac:	li	a5,-1
    13b0:	sw	a5,-36(s0)
                }
                if ( (XCOR == 35) && (YCOR >= 49) && (YCOR <= 59) && (XDIR == -1) ) {
    13b4:	lw	a4,-20(s0)
    13b8:	li	a5,35
    13bc:	bne	a4,a5,13ec <main+0x12b4>
    13c0:	lw	a4,-24(s0)
    13c4:	li	a5,48
    13c8:	bge	a5,a4,13ec <main+0x12b4>
    13cc:	lw	a4,-24(s0)
    13d0:	li	a5,59
    13d4:	blt	a5,a4,13ec <main+0x12b4>
    13d8:	lw	a4,-36(s0)
    13dc:	li	a5,-1
    13e0:	bne	a4,a5,13ec <main+0x12b4>
                    XDIR = 1;
    13e4:	li	a5,1
    13e8:	sw	a5,-36(s0)
                }
                if ( (XCOR == 44) && (YCOR >= 49) && (YCOR <= 59) && (XDIR == 1) ) {
    13ec:	lw	a4,-20(s0)
    13f0:	li	a5,44
    13f4:	bne	a4,a5,1424 <main+0x12ec>
    13f8:	lw	a4,-24(s0)
    13fc:	li	a5,48
    1400:	bge	a5,a4,1424 <main+0x12ec>
    1404:	lw	a4,-24(s0)
    1408:	li	a5,59
    140c:	blt	a5,a4,1424 <main+0x12ec>
    1410:	lw	a4,-36(s0)
    1414:	li	a5,1
    1418:	bne	a4,a5,1424 <main+0x12ec>
                    XDIR = -1;
    141c:	li	a5,-1
    1420:	sw	a5,-36(s0)
                }
                if ( (XCOR == 46) && (YCOR >= 49) && (YCOR <= 59) && (XDIR == -1) ) {
    1424:	lw	a4,-20(s0)
    1428:	li	a5,46
    142c:	bne	a4,a5,145c <main+0x1324>
    1430:	lw	a4,-24(s0)
    1434:	li	a5,48
    1438:	bge	a5,a4,145c <main+0x1324>
    143c:	lw	a4,-24(s0)
    1440:	li	a5,59
    1444:	blt	a5,a4,145c <main+0x1324>
    1448:	lw	a4,-36(s0)
    144c:	li	a5,-1
    1450:	bne	a4,a5,145c <main+0x1324>
                    XDIR = 1;
    1454:	li	a5,1
    1458:	sw	a5,-36(s0)
                }
                if ( (XCOR >= 19) && (XCOR <= 34) && (YCOR == 9) && (YDIR == 1) ) {
    145c:	lw	a4,-20(s0)
    1460:	li	a5,18
    1464:	bge	a5,a4,1494 <main+0x135c>
    1468:	lw	a4,-20(s0)
    146c:	li	a5,34
    1470:	blt	a5,a4,1494 <main+0x135c>
    1474:	lw	a4,-24(s0)
    1478:	li	a5,9
    147c:	bne	a4,a5,1494 <main+0x135c>
    1480:	lw	a4,-40(s0)
    1484:	li	a5,1
    1488:	bne	a4,a5,1494 <main+0x135c>
                    YDIR = -1;
    148c:	li	a5,-1
    1490:	sw	a5,-40(s0)
                }
                if ( (XCOR >= 19) && (XCOR <= 34) && (YCOR == 11) && (YDIR == -1) ) {
    1494:	lw	a4,-20(s0)
    1498:	li	a5,18
    149c:	bge	a5,a4,14cc <main+0x1394>
    14a0:	lw	a4,-20(s0)
    14a4:	li	a5,34
    14a8:	blt	a5,a4,14cc <main+0x1394>
    14ac:	lw	a4,-24(s0)
    14b0:	li	a5,11
    14b4:	bne	a4,a5,14cc <main+0x1394>
    14b8:	lw	a4,-40(s0)
    14bc:	li	a5,-1
    14c0:	bne	a4,a5,14cc <main+0x1394>
                    YDIR = 1;
    14c4:	li	a5,1
    14c8:	sw	a5,-40(s0)
                }
                if ( (XCOR >= 19) && (XCOR <= 34) && (YCOR == 48) && (YDIR == 1) ) {
    14cc:	lw	a4,-20(s0)
    14d0:	li	a5,18
    14d4:	bge	a5,a4,1504 <main+0x13cc>
    14d8:	lw	a4,-20(s0)
    14dc:	li	a5,34
    14e0:	blt	a5,a4,1504 <main+0x13cc>
    14e4:	lw	a4,-24(s0)
    14e8:	li	a5,48
    14ec:	bne	a4,a5,1504 <main+0x13cc>
    14f0:	lw	a4,-40(s0)
    14f4:	li	a5,1
    14f8:	bne	a4,a5,1504 <main+0x13cc>
                    YDIR = -1;
    14fc:	li	a5,-1
    1500:	sw	a5,-40(s0)
                }
                if ( (XCOR >= 19) && (XCOR <= 34) && (YCOR == 50) && (YDIR == -1) ) {
    1504:	lw	a4,-20(s0)
    1508:	li	a5,18
    150c:	bge	a5,a4,153c <main+0x1404>
    1510:	lw	a4,-20(s0)
    1514:	li	a5,34
    1518:	blt	a5,a4,153c <main+0x1404>
    151c:	lw	a4,-24(s0)
    1520:	li	a5,50
    1524:	bne	a4,a5,153c <main+0x1404>
    1528:	lw	a4,-40(s0)
    152c:	li	a5,-1
    1530:	bne	a4,a5,153c <main+0x1404>
                    YDIR = 1;
    1534:	li	a5,1
    1538:	sw	a5,-40(s0)
                }
                if ( (XCOR >= 45) && (XCOR <= 59) && (YCOR == 9) && (YDIR == 1) ) {
    153c:	lw	a4,-20(s0)
    1540:	li	a5,44
    1544:	bge	a5,a4,1574 <main+0x143c>
    1548:	lw	a4,-20(s0)
    154c:	li	a5,59
    1550:	blt	a5,a4,1574 <main+0x143c>
    1554:	lw	a4,-24(s0)
    1558:	li	a5,9
    155c:	bne	a4,a5,1574 <main+0x143c>
    1560:	lw	a4,-40(s0)
    1564:	li	a5,1
    1568:	bne	a4,a5,1574 <main+0x143c>
                    YDIR = -1;
    156c:	li	a5,-1
    1570:	sw	a5,-40(s0)
                }
                if ( (XCOR >= 45) && (XCOR <= 59) && (YCOR == 11) && (YDIR == -1) ) {
    1574:	lw	a4,-20(s0)
    1578:	li	a5,44
    157c:	bge	a5,a4,15ac <main+0x1474>
    1580:	lw	a4,-20(s0)
    1584:	li	a5,59
    1588:	blt	a5,a4,15ac <main+0x1474>
    158c:	lw	a4,-24(s0)
    1590:	li	a5,11
    1594:	bne	a4,a5,15ac <main+0x1474>
    1598:	lw	a4,-40(s0)
    159c:	li	a5,-1
    15a0:	bne	a4,a5,15ac <main+0x1474>
                    YDIR = 1;
    15a4:	li	a5,1
    15a8:	sw	a5,-40(s0)
                }
                if ( (XCOR >= 45) && (XCOR <= 59) && (YCOR == 48) && (YDIR == 1) ) {
    15ac:	lw	a4,-20(s0)
    15b0:	li	a5,44
    15b4:	bge	a5,a4,15e4 <main+0x14ac>
    15b8:	lw	a4,-20(s0)
    15bc:	li	a5,59
    15c0:	blt	a5,a4,15e4 <main+0x14ac>
    15c4:	lw	a4,-24(s0)
    15c8:	li	a5,48
    15cc:	bne	a4,a5,15e4 <main+0x14ac>
    15d0:	lw	a4,-40(s0)
    15d4:	li	a5,1
    15d8:	bne	a4,a5,15e4 <main+0x14ac>
                    YDIR = -1;
    15dc:	li	a5,-1
    15e0:	sw	a5,-40(s0)
                }
                if ( (XCOR >= 45) && (XCOR <= 59) && (YCOR == 50) && (YDIR == -1) ) {
    15e4:	lw	a4,-20(s0)
    15e8:	li	a5,44
    15ec:	bge	a5,a4,161c <main+0x14e4>
    15f0:	lw	a4,-20(s0)
    15f4:	li	a5,59
    15f8:	blt	a5,a4,161c <main+0x14e4>
    15fc:	lw	a4,-24(s0)
    1600:	li	a5,50
    1604:	bne	a4,a5,161c <main+0x14e4>
    1608:	lw	a4,-40(s0)
    160c:	li	a5,-1
    1610:	bne	a4,a5,161c <main+0x14e4>
                    YDIR = 1;
    1614:	li	a5,1
    1618:	sw	a5,-40(s0)




		/********** Capture old X and Y positions; determine new X and Y positions **********/
		old_XCOR = XCOR;
    161c:	lw	a5,-20(s0)
    1620:	sw	a5,-28(s0)
		old_YCOR = YCOR;
    1624:	lw	a5,-24(s0)
    1628:	sw	a5,-32(s0)
		XCOR += XDIR;
    162c:	lw	a4,-20(s0)
    1630:	lw	a5,-36(s0)
    1634:	add	a5,a4,a5
    1638:	sw	a5,-20(s0)
		YCOR += YDIR;
    163c:	lw	a4,-24(s0)
    1640:	lw	a5,-40(s0)
    1644:	add	a5,a4,a5
    1648:	sw	a5,-24(s0)

		/********** Read Switches value, send to LEDs; read Button values, send to Seven Segment Display **********/
		*LEDS = *SWITCHES;
    164c:	lui	a4,0x11000
    1650:	lui	a5,0x11080
    1654:	lw	a4,0(a4) # 11000000 <__sp+0x10ff0000>
    1658:	sw	a4,0(a5) # 11080000 <__sp+0x11070000>
		*SSD = *BUTTONS;	
    165c:	lui	a4,0x11180
    1660:	lui	a5,0x110c0
    1664:	lw	a4,0(a4) # 11180000 <__sp+0x11170000>
    1668:	sw	a4,0(a5) # 110c0000 <__sp+0x110b0000>
		draw_dot( XCOR, YCOR, COLOR );
    166c:	j	5f8 <main+0x4c0>

00001670 <draw_horizontal_line>:
	}
}

/********** Draws a horizontal line starting at coordinates (X,Y), ending at coordinates (toX,Y); color is specified by the argument 'color' **********/
static void draw_horizontal_line(int X, int Y, int toX, int color) {
    1670:	addi	sp,sp,-32
    1674:	sw	ra,28(sp)
    1678:	sw	s0,24(sp)
    167c:	addi	s0,sp,32
    1680:	sw	a0,-20(s0)
    1684:	sw	a1,-24(s0)
    1688:	sw	a2,-28(s0)
    168c:	sw	a3,-32(s0)
	toX++;
    1690:	lw	a5,-28(s0)
    1694:	addi	a5,a5,1
    1698:	sw	a5,-28(s0)
	for (; X != toX; X++) {
    169c:	j	16bc <draw_horizontal_line+0x4c>
		draw_dot(X, Y, color);
    16a0:	lw	a2,-32(s0)
    16a4:	lw	a1,-24(s0)
    16a8:	lw	a0,-20(s0)
    16ac:	jal	ra,17a4 <draw_dot>
	for (; X != toX; X++) {
    16b0:	lw	a5,-20(s0)
    16b4:	addi	a5,a5,1
    16b8:	sw	a5,-20(s0)
    16bc:	lw	a4,-20(s0)
    16c0:	lw	a5,-28(s0)
    16c4:	bne	a4,a5,16a0 <draw_horizontal_line+0x30>
	}
}
    16c8:	nop
    16cc:	lw	ra,28(sp)
    16d0:	lw	s0,24(sp)
    16d4:	addi	sp,sp,32
    16d8:	ret

000016dc <draw_vertical_line>:

/********** Draws a vertical line starting at coordinates (X,Y), ending at coordinates (X,toY); color is specified by the argument 'color' **********/
static void draw_vertical_line(int X, int Y, int toY, int color) {
    16dc:	addi	sp,sp,-32
    16e0:	sw	ra,28(sp)
    16e4:	sw	s0,24(sp)
    16e8:	addi	s0,sp,32
    16ec:	sw	a0,-20(s0)
    16f0:	sw	a1,-24(s0)
    16f4:	sw	a2,-28(s0)
    16f8:	sw	a3,-32(s0)
	toY++;
    16fc:	lw	a5,-28(s0)
    1700:	addi	a5,a5,1
    1704:	sw	a5,-28(s0)
	for (; Y != toY; Y++) {
    1708:	j	1728 <draw_vertical_line+0x4c>
		draw_dot(X, Y, color);
    170c:	lw	a2,-32(s0)
    1710:	lw	a1,-24(s0)
    1714:	lw	a0,-20(s0)
    1718:	jal	ra,17a4 <draw_dot>
	for (; Y != toY; Y++) {
    171c:	lw	a5,-24(s0)
    1720:	addi	a5,a5,1
    1724:	sw	a5,-24(s0)
    1728:	lw	a4,-24(s0)
    172c:	lw	a5,-28(s0)
    1730:	bne	a4,a5,170c <draw_vertical_line+0x30>
	}
}
    1734:	nop
    1738:	lw	ra,28(sp)
    173c:	lw	s0,24(sp)
    1740:	addi	sp,sp,32
    1744:	ret

00001748 <draw_background>:

/********** Fills the screen with BG_COLOR ***********/
static void draw_background() {
    1748:	addi	sp,sp,-32
    174c:	sw	ra,28(sp)
    1750:	sw	s0,24(sp)
    1754:	addi	s0,sp,32
	for (int Y = 0; Y != 60; Y++) {
    1758:	sw	zero,-20(s0)
    175c:	j	1784 <draw_background+0x3c>
		draw_horizontal_line(0, Y, 79, BG_COLOR);
    1760:	li	a5,23
    1764:	mv	a3,a5
    1768:	li	a2,79
    176c:	lw	a1,-20(s0)
    1770:	li	a0,0
    1774:	jal	ra,1670 <draw_horizontal_line>
	for (int Y = 0; Y != 60; Y++) {
    1778:	lw	a5,-20(s0)
    177c:	addi	a5,a5,1
    1780:	sw	a5,-20(s0)
    1784:	lw	a4,-20(s0)
    1788:	li	a5,60
    178c:	bne	a4,a5,1760 <draw_background+0x18>
	}
}
    1790:	nop
    1794:	lw	ra,28(sp)
    1798:	lw	s0,24(sp)
    179c:	addi	sp,sp,32
    17a0:	ret

000017a4 <draw_dot>:

/********** Draws a small square (a single memory cell) **********/
static void draw_dot(int X, int Y, int color) {
    17a4:	addi	sp,sp,-32
    17a8:	sw	s0,28(sp)
    17ac:	addi	s0,sp,32
    17b0:	sw	a0,-20(s0)
    17b4:	sw	a1,-24(s0)
    17b8:	sw	a2,-28(s0)
	*VG_ADDR = (Y << 7) | X;	/* store into the address IO register */
    17bc:	lw	a5,-24(s0)
    17c0:	slli	a3,a5,0x7
    17c4:	lui	a5,0x11100
    17c8:	lw	a4,-20(s0)
    17cc:	or	a4,a3,a4
    17d0:	sw	a4,0(a5) # 11100000 <__sp+0x110f0000>
	*VG_COLOR = color;		/* store into the color IO register, which triggers the actual write to the framebuffer, at the address previously stored in the address IO register */
    17d4:	lui	a5,0x11140
    17d8:	lw	a4,-28(s0)
    17dc:	sw	a4,0(a5) # 11140000 <__sp+0x11130000>
}
    17e0:	nop
    17e4:	lw	s0,28(sp)
    17e8:	addi	sp,sp,32
    17ec:	ret

000017f0 <atexit>:
    17f0:	mv	a1,a0
    17f4:	li	a3,0
    17f8:	li	a2,0
    17fc:	li	a0,0
    1800:	j	1a14 <__register_exitproc>

00001804 <exit>:
    1804:	addi	sp,sp,-16
    1808:	li	a1,0
    180c:	sw	s0,8(sp)
    1810:	sw	ra,12(sp)
    1814:	mv	s0,a0
    1818:	jal	ra,1a90 <__call_exitprocs>
    181c:	lw	a0,-916(gp) # 2054 <_global_impure_ptr>
    1820:	lw	a5,60(a0)
    1824:	beqz	a5,182c <exit+0x28>
    1828:	jalr	a5
    182c:	mv	a0,s0
    1830:	jal	ra,1b9c <_exit>

00001834 <__libc_fini_array>:
    1834:	addi	sp,sp,-16
    1838:	lui	a5,0x0
    183c:	sw	s0,8(sp)
    1840:	lui	s0,0x0
    1844:	mv	a4,a5
    1848:	mv	s0,s0
    184c:	sub	s0,s0,a4
    1850:	sw	s1,4(sp)
    1854:	sw	ra,12(sp)
    1858:	srai	s0,s0,0x2
    185c:	mv	s1,a5
    1860:	bnez	s0,1878 <__libc_fini_array+0x44>
    1864:	lw	s0,8(sp)
    1868:	lw	ra,12(sp)
    186c:	lw	s1,4(sp)
    1870:	addi	sp,sp,16
    1874:	j	50 <_fini>
    1878:	addi	s0,s0,-1
    187c:	slli	a5,s0,0x2
    1880:	add	a5,s1,a5
    1884:	lw	a5,0(a5) # 0 <entry>
    1888:	jalr	a5
    188c:	j	1860 <__libc_fini_array+0x2c>

00001890 <__libc_init_array>:
    1890:	addi	sp,sp,-16
    1894:	lui	a5,0x0
    1898:	sw	s0,8(sp)
    189c:	lui	s0,0x0
    18a0:	mv	a4,a5
    18a4:	mv	s0,s0
    18a8:	sub	s0,s0,a4
    18ac:	sw	s1,4(sp)
    18b0:	sw	s2,0(sp)
    18b4:	sw	ra,12(sp)
    18b8:	srai	s0,s0,0x2
    18bc:	li	s1,0
    18c0:	mv	s2,a5
    18c4:	bne	s1,s0,1908 <__libc_init_array+0x78>
    18c8:	jal	ra,50 <_fini>
    18cc:	lui	a5,0x0
    18d0:	lui	s0,0x0
    18d4:	mv	a4,a5
    18d8:	mv	s0,s0
    18dc:	sub	s0,s0,a4
    18e0:	srai	s0,s0,0x2
    18e4:	li	s1,0
    18e8:	mv	s2,a5
    18ec:	bne	s1,s0,1920 <__libc_init_array+0x90>
    18f0:	lw	ra,12(sp)
    18f4:	lw	s0,8(sp)
    18f8:	lw	s1,4(sp)
    18fc:	lw	s2,0(sp)
    1900:	addi	sp,sp,16
    1904:	ret
    1908:	slli	a5,s1,0x2
    190c:	add	a5,s2,a5
    1910:	lw	a5,0(a5) # 0 <entry>
    1914:	addi	s1,s1,1
    1918:	jalr	a5
    191c:	j	18c4 <__libc_init_array+0x34>
    1920:	slli	a5,s1,0x2
    1924:	add	a5,s2,a5
    1928:	lw	a5,0(a5)
    192c:	addi	s1,s1,1
    1930:	jalr	a5
    1934:	j	18ec <__libc_init_array+0x5c>

00001938 <memset>:
    1938:	li	t1,15
    193c:	mv	a4,a0
    1940:	bgeu	t1,a2,197c <memset+0x44>
    1944:	andi	a5,a4,15
    1948:	bnez	a5,19e8 <memset+0xb0>
    194c:	bnez	a1,19d0 <memset+0x98>
    1950:	andi	a3,a2,-16
    1954:	andi	a2,a2,15
    1958:	add	a3,a3,a4
    195c:	sw	a1,0(a4)
    1960:	sw	a1,4(a4)
    1964:	sw	a1,8(a4)
    1968:	sw	a1,12(a4)
    196c:	addi	a4,a4,16
    1970:	bltu	a4,a3,195c <memset+0x24>
    1974:	bnez	a2,197c <memset+0x44>
    1978:	ret
    197c:	sub	a3,t1,a2
    1980:	slli	a3,a3,0x2
    1984:	auipc	t0,0x0
    1988:	add	a3,a3,t0
    198c:	jr	12(a3)
    1990:	sb	a1,14(a4)
    1994:	sb	a1,13(a4)
    1998:	sb	a1,12(a4)
    199c:	sb	a1,11(a4)
    19a0:	sb	a1,10(a4)
    19a4:	sb	a1,9(a4)
    19a8:	sb	a1,8(a4)
    19ac:	sb	a1,7(a4)
    19b0:	sb	a1,6(a4)
    19b4:	sb	a1,5(a4)
    19b8:	sb	a1,4(a4)
    19bc:	sb	a1,3(a4)
    19c0:	sb	a1,2(a4)
    19c4:	sb	a1,1(a4)
    19c8:	sb	a1,0(a4)
    19cc:	ret
    19d0:	andi	a1,a1,255
    19d4:	slli	a3,a1,0x8
    19d8:	or	a1,a1,a3
    19dc:	slli	a3,a1,0x10
    19e0:	or	a1,a1,a3
    19e4:	j	1950 <memset+0x18>
    19e8:	slli	a3,a5,0x2
    19ec:	auipc	t0,0x0
    19f0:	add	a3,a3,t0
    19f4:	mv	t0,ra
    19f8:	jalr	-96(a3)
    19fc:	mv	ra,t0
    1a00:	addi	a5,a5,-16
    1a04:	sub	a4,a4,a5
    1a08:	add	a2,a2,a5
    1a0c:	bgeu	t1,a2,197c <memset+0x44>
    1a10:	j	194c <memset+0x14>

00001a14 <__register_exitproc>:
    1a14:	lw	a4,-916(gp) # 2054 <_global_impure_ptr>
    1a18:	mv	t1,a0
    1a1c:	lw	a5,328(a4)
    1a20:	bnez	a5,1a2c <__register_exitproc+0x18>
    1a24:	addi	a5,a4,332
    1a28:	sw	a5,328(a4)
    1a2c:	lw	a4,4(a5)
    1a30:	li	a6,31
    1a34:	li	a0,-1
    1a38:	blt	a6,a4,1a8c <__register_exitproc+0x78>
    1a3c:	slli	a7,a4,0x2
    1a40:	beqz	t1,1a78 <__register_exitproc+0x64>
    1a44:	add	a0,a5,a7
    1a48:	sw	a2,136(a0)
    1a4c:	lw	a6,392(a5)
    1a50:	li	a2,1
    1a54:	sll	a2,a2,a4
    1a58:	or	a6,a6,a2
    1a5c:	sw	a6,392(a5)
    1a60:	sw	a3,264(a0)
    1a64:	li	a3,2
    1a68:	bne	t1,a3,1a78 <__register_exitproc+0x64>
    1a6c:	lw	a3,396(a5)
    1a70:	or	a2,a3,a2
    1a74:	sw	a2,396(a5)
    1a78:	addi	a4,a4,1
    1a7c:	sw	a4,4(a5)
    1a80:	add	a5,a5,a7
    1a84:	sw	a1,8(a5)
    1a88:	li	a0,0
    1a8c:	ret

00001a90 <__call_exitprocs>:
    1a90:	addi	sp,sp,-48
    1a94:	sw	s3,28(sp)
    1a98:	lw	s3,-916(gp) # 2054 <_global_impure_ptr>
    1a9c:	sw	s4,24(sp)
    1aa0:	sw	s5,20(sp)
    1aa4:	sw	s6,16(sp)
    1aa8:	sw	ra,44(sp)
    1aac:	sw	s0,40(sp)
    1ab0:	sw	s1,36(sp)
    1ab4:	sw	s2,32(sp)
    1ab8:	sw	s7,12(sp)
    1abc:	mv	s5,a0
    1ac0:	mv	s4,a1
    1ac4:	li	s6,1
    1ac8:	lw	s1,328(s3)
    1acc:	beqz	s1,1ae4 <__call_exitprocs+0x54>
    1ad0:	lw	s0,4(s1)
    1ad4:	addi	s2,s0,-1
    1ad8:	slli	s0,s0,0x2
    1adc:	add	s0,s1,s0
    1ae0:	bgez	s2,1b10 <__call_exitprocs+0x80>
    1ae4:	lw	ra,44(sp)
    1ae8:	lw	s0,40(sp)
    1aec:	lw	s1,36(sp)
    1af0:	lw	s2,32(sp)
    1af4:	lw	s3,28(sp)
    1af8:	lw	s4,24(sp)
    1afc:	lw	s5,20(sp)
    1b00:	lw	s6,16(sp)
    1b04:	lw	s7,12(sp)
    1b08:	addi	sp,sp,48
    1b0c:	ret
    1b10:	beqz	s4,1b28 <__call_exitprocs+0x98>
    1b14:	lw	a5,260(s0)
    1b18:	beq	a5,s4,1b28 <__call_exitprocs+0x98>
    1b1c:	addi	s2,s2,-1
    1b20:	addi	s0,s0,-4
    1b24:	j	1ae0 <__call_exitprocs+0x50>
    1b28:	lw	a4,4(s1)
    1b2c:	lw	a5,4(s0)
    1b30:	addi	a4,a4,-1
    1b34:	bne	a4,s2,1b6c <__call_exitprocs+0xdc>
    1b38:	sw	s2,4(s1)
    1b3c:	beqz	a5,1b1c <__call_exitprocs+0x8c>
    1b40:	lw	a3,392(s1)
    1b44:	sll	a4,s6,s2
    1b48:	lw	s7,4(s1)
    1b4c:	and	a3,a4,a3
    1b50:	bnez	a3,1b74 <__call_exitprocs+0xe4>
    1b54:	jalr	a5
    1b58:	lw	a5,4(s1)
    1b5c:	bne	a5,s7,1ac8 <__call_exitprocs+0x38>
    1b60:	lw	a5,328(s3)
    1b64:	beq	a5,s1,1b1c <__call_exitprocs+0x8c>
    1b68:	j	1ac8 <__call_exitprocs+0x38>
    1b6c:	sw	zero,4(s0)
    1b70:	j	1b3c <__call_exitprocs+0xac>
    1b74:	lw	a3,396(s1)
    1b78:	lw	a1,132(s0)
    1b7c:	and	a4,a4,a3
    1b80:	bnez	a4,1b90 <__call_exitprocs+0x100>
    1b84:	mv	a0,s5
    1b88:	jalr	a5
    1b8c:	j	1b58 <__call_exitprocs+0xc8>
    1b90:	mv	a0,a1
    1b94:	jalr	a5
    1b98:	j	1b58 <__call_exitprocs+0xc8>

00001b9c <_exit>:
    1b9c:	li	a1,0
    1ba0:	li	a2,0
    1ba4:	li	a3,0
    1ba8:	li	a4,0
    1bac:	li	a5,0
    1bb0:	li	a7,93
    1bb4:	ecall
    1bb8:	bgez	a0,1bdc <_exit+0x40>
    1bbc:	addi	sp,sp,-16
    1bc0:	sw	s0,8(sp)
    1bc4:	mv	s0,a0
    1bc8:	sw	ra,12(sp)
    1bcc:	neg	s0,s0
    1bd0:	jal	ra,1be0 <__errno>
    1bd4:	sw	s0,0(a0)
    1bd8:	j	1bd8 <_exit+0x3c>
    1bdc:	j	1bdc <_exit+0x40>

00001be0 <__errno>:
    1be0:	lw	a0,-948(gp) # 2034 <_impure_ptr>
    1be4:	ret
